Microchip Technology Inc, v3.21 (B)

Tool Name:
  c:\program files\microchip\xc-dsc\v3.21\bin\bin\..\bin/elf-ld.exe

Command:
  -p33EP256MC506 \
  --mdfp=C:/Users/M77783/.mchp_packs/Microchip/dsPIC33E-GM-GP-MC-GU-MU_DFP/1.6.297/xc16 \
  -o \
  dist/default/production/sample-mb-33ep256mc506-mclv2.X.production.elf \
  -Lc:/program files/microchip/xc-dsc/v3.21/bin/bin/.. \
  -LC:/Users/M77783/.mchp_packs/Microchip/dsPIC33E-GM-GP-MC-GU-MU_DFP/1.6.297/xc16/bin/../support/PIC24E/gld \
  -LC:/Users/M77783/.mchp_packs/Microchip/dsPIC33E-GM-GP-MC-GU-MU_DFP/1.6.297/xc16/bin/../support/dsPIC33E/gld \
  -Lc:/program files/microchip/xc-dsc/v3.21/bin/bin/../../lib \
  -Lc:/program files/microchip/xc-dsc/v3.21/bin/bin/../../support/dsPIC30F/gld \
  -Lc:/program files/microchip/xc-dsc/v3.21/bin/bin/../../support/dsPIC33C/gld \
  -Lc:/program files/microchip/xc-dsc/v3.21/bin/bin/../../support/dsPIC33E/gld \
  -Lc:/program files/microchip/xc-dsc/v3.21/bin/bin/../../support/dsPIC33A/gld \
  -Lc:/program files/microchip/xc-dsc/v3.21/bin/bin/../../support/dsPIC33F/gld \
  build/default/production/mcc_generated_files/tmr1.o \
  build/default/production/mcc_generated_files/uart1.o \
  build/default/production/mcc_generated_files/tmr2.o \
  build/default/production/mcc_generated_files/reset.o \
  build/default/production/mcc_generated_files/system.o \
  build/default/production/mcc_generated_files/adc1.o \
  build/default/production/mcc_generated_files/clock.o \
  build/default/production/mcc_generated_files/interrupt_manager.o \
  build/default/production/mcc_generated_files/pwm.o \
  build/default/production/mcc_generated_files/where_was_i.o \
  build/default/production/mcc_generated_files/traps.o \
  build/default/production/mcc_generated_files/mcc.o \
  build/default/production/mcc_generated_files/pin_manager.o \
  build/default/production/main.o \
  build/default/production/mcc_generated_files/motorBench/test_harness.o \
  build/default/production/mcc_generated_files/motorBench/stall_detect.o \
  build/default/production/mcc_generated_files/motorBench/metadata/data_model_snapshot.o \
  build/default/production/mcc_generated_files/motorBench/mcaf_main.o \
  build/default/production/mcc_generated_files/motorBench/test_harness_timestamps.o \
  build/default/production/mcc_generated_files/motorBench/startup.o \
  build/default/production/mcc_generated_files/motorBench/hal/mcaf_pin_manager.o \
  build/default/production/mcc_generated_files/motorBench/fault_handle.o \
  build/default/production/mcc_generated_files/motorBench/mcaf_sample_application.o \
  build/default/production/mcc_generated_files/motorBench/ui.o \
  build/default/production/mcc_generated_files/motorBench/monitor.o \
  build/default/production/mcc_generated_files/motorBench/hal/qei1.o \
  build/default/production/mcc_generated_files/motorBench/isr.o \
  build/default/production/mcc_generated_files/motorBench/system_state.o \
  build/default/production/mcc_generated_files/motorBench/current_measure.o \
  build/default/production/mcc_generated_files/motorBench/board_service.o \
  build/default/production/mcc_generated_files/motorBench/foc.o \
  build/default/production/mcc_generated_files/motorBench/mcapi.o \
  build/default/production/mcc_generated_files/motorBench/gate_drive.o \
  build/default/production/mcc_generated_files/motorBench/fault_detect.o \
  build/default/production/mcc_generated_files/motorBench/commutation/pll.o \
  build/default/production/mcc_generated_files/motorBench/mcaf_traps.o \
  build/default/production/mcc_generated_files/motorBench/diagnostics.o \
  build/default/production/mcc_generated_files/motorBench/system_init.o \
  build/default/production/mcc_generated_files/motorBench/math_asm.o \
  build/default/production/mcc_generated_files/motorBench/sat_PI.o \
  build/default/production/mcc_generated_files/motorBench/parameters/init_params.o \
  build/default/production/mcc_generated_files/motorBench/recover.o \
  build/default/production/mcc_generated_files/motorBench/state_machine.o \
  build/default/production/mcc_generated_files/motorBench/hal/hardware_access_functions.o \
  build/default/production/mcc_generated_files/motorBench/adc_compensation.o \
  build/default/production/mcc_generated_files/motorBench/commutation.o \
  mcc_generated_files\motorBench\library\mc-library\libmotor_control_dspic-elf.a \
  mcc_generated_files\motorBench\library\x2cscope\libx2cscope-dspic-elf.a \
  --local-stack \
  --defsym=__MPLAB_BUILD=1 \
  -Tp33EP256MC506.gld.00 \
  --stack=16 \
  --check-sections \
  --data-init \
  --pack-data \
  --handles \
  --isr \
  --gc-sections \
  --fill-upper=0 \
  --stackguard=16 \
  --no-force-link \
  --smart-io \
  -Map=dist/default/production/sample-mb-33ep256mc506-mclv2.X.production.map \
  --report-mem \
  --memorysummary \
  dist/default/production/memoryfile.xml \
  -start-group \
  --library=c99-pic30-elf \
  --library=m-elf \
  --library=c99-elf \
  -end-group \

Archive member included to satisfy reference by file (symbol)

mcc_generated_files\motorBench\library\mc-library\libmotor_control_dspic-elf.a(mc_sinetable_ram_dspic.33E.o)
                              build/default/production/mcc_generated_files/motorBench/foc.o (_MC_SineTableInRam)
mcc_generated_files\motorBench\library\x2cscope\libx2cscope-dspic-elf.a(generic-16bit-epX2CScopeWrapper.o)
                              build/default/production/mcc_generated_files/motorBench/diagnostics.o (_X2Cscope_Initialise)
mcc_generated_files\motorBench\library\x2cscope\libx2cscope-dspic-elf.a(generic-16dsp-epBlockServicesX2C.o)
                              mcc_generated_files\motorBench\library\x2cscope\libx2cscope-dspic-elf.a(generic-16bit-epX2CScopeWrapper.o) (_addBlockServices)
mcc_generated_files\motorBench\library\x2cscope\libx2cscope-dspic-elf.a(generic-16dsp-epLNet.o)
                              mcc_generated_files\motorBench\library\x2cscope\libx2cscope-dspic-elf.a(generic-16bit-epX2CScopeWrapper.o) (_initLNet)
mcc_generated_files\motorBench\library\x2cscope\libx2cscope-dspic-elf.a(generic-16dsp-epSerialGeneric.o)
                              mcc_generated_files\motorBench\library\x2cscope\libx2cscope-dspic-elf.a(generic-16bit-epX2CScopeWrapper.o) (_initSerialGeneric)
mcc_generated_files\motorBench\library\x2cscope\libx2cscope-dspic-elf.a(generic-16dsp-epServices.o)
                              mcc_generated_files\motorBench\library\x2cscope\libx2cscope-dspic-elf.a(generic-16dsp-epBlockServicesX2C.o) (_sendError)
mcc_generated_files\motorBench\library\x2cscope\libx2cscope-dspic-elf.a(generic-16dsp-epTableStruct.o)
                              mcc_generated_files\motorBench\library\x2cscope\libx2cscope-dspic-elf.a(generic-16bit-epX2CScopeWrapper.o) (_initTableStruct)
mcc_generated_files\motorBench\library\x2cscope\libx2cscope-dspic-elf.a(generic-16dsp-epVersionInfo.o)
                              mcc_generated_files\motorBench\library\x2cscope\libx2cscope-dspic-elf.a(generic-16bit-epX2CScopeWrapper.o) (_initVersionInfo)
mcc_generated_files\motorBench\library\x2cscope\libx2cscope-dspic-elf.a(generic-16dsp-epX2C.o)
                              mcc_generated_files\motorBench\library\x2cscope\libx2cscope-dspic-elf.a(generic-16bit-epX2CScopeWrapper.o) (_X2C_Init)
mcc_generated_files\motorBench\library\x2cscope\libx2cscope-dspic-elf.a(generic-16bit-epScope_Main.o)
                              mcc_generated_files\motorBench\library\x2cscope\libx2cscope-dspic-elf.a(generic-16dsp-epX2C.o) (_Scope_Main_Init)
mcc_generated_files\motorBench\library\x2cscope\libx2cscope-dspic-elf.a(generic-16dsp-epCommonFcts.o)
                              mcc_generated_files\motorBench\library\x2cscope\libx2cscope-dspic-elf.a(generic-16bit-epScope_Main.o) (_getAbsValI32)

Optional library libp33EP256MC506.a not found
c:/program files/microchip/xc-dsc/v3.21/bin/bin/../../lib\libc99-pic30-elf.a(crt_start_mode_normal.EPMeo)
                              (__crt_start_mode_normal)
c:/program files/microchip/xc-dsc/v3.21/bin/bin/../../lib\libc99-pic30-elf.a(delay32.EPMeo)
                              build/default/production/mcc_generated_files/motorBench/ui.o (___delay32)
c:/program files/microchip/xc-dsc/v3.21/bin/bin/../../lib\libc99-pic30-elf.a(crt0_extendedep.o)
                              (__resetPRI)
c:/program files/microchip/xc-dsc/v3.21/bin/bin/../../lib\libc99-pic30-elf.a(data_init_extended.o)
                              c:/program files/microchip/xc-dsc/v3.21/bin/bin/../../lib\libc99-pic30-elf.a(crt0_extendedep.o) (__data_init_extended)
c:/program files/microchip/xc-dsc/v3.21/bin/bin/../../lib\libc99-pic30-elf.a(deqltle.EP_o)
                              mcc_generated_files\motorBench\library\x2cscope\libx2cscope-dspic-elf.a(generic-16bit-epScope_Main.o) (___ltdf2)
c:/program files/microchip/xc-dsc/v3.21/bin/bin/../../lib\libc99-pic30-elf.a(dgtge.EP_o)
                              mcc_generated_files\motorBench\library\x2cscope\libx2cscope-dspic-elf.a(generic-16bit-epScope_Main.o) (___gtdf2)
c:/program files/microchip/xc-dsc/v3.21/bin/bin/../../lib\libc99-pic30-elf.a(feqltle.EP_o)
                              mcc_generated_files\motorBench\library\x2cscope\libx2cscope-dspic-elf.a(generic-16bit-epScope_Main.o) (___ltsf2)
c:/program files/microchip/xc-dsc/v3.21/bin/bin/../../lib\libc99-pic30-elf.a(fgtge.EP_o)
                              mcc_generated_files\motorBench\library\x2cscope\libx2cscope-dspic-elf.a(generic-16bit-epScope_Main.o) (___gtsf2)
c:/program files/microchip/xc-dsc/v3.21/bin/bin/../../lib\libc99-pic30-elf.a(dcompare.EP_o)
                              c:/program files/microchip/xc-dsc/v3.21/bin/bin/../../lib\libc99-pic30-elf.a(deqltle.EP_o) (__dcompare)
c:/program files/microchip/xc-dsc/v3.21/bin/bin/../../lib\libc99-pic30-elf.a(dtype.EP_o)
                              c:/program files/microchip/xc-dsc/v3.21/bin/bin/../../lib\libc99-pic30-elf.a(dcompare.EP_o) (__dtype)
c:/program files/microchip/xc-dsc/v3.21/bin/bin/../../lib\libc99-pic30-elf.a(fcompare.EP_o)
                              c:/program files/microchip/xc-dsc/v3.21/bin/bin/../../lib\libc99-pic30-elf.a(feqltle.EP_o) (__fcompare)
c:/program files/microchip/xc-dsc/v3.21/bin/bin/../../lib\libc99-pic30-elf.a(funpack2.EP_o)
                              c:/program files/microchip/xc-dsc/v3.21/bin/bin/../../lib\libc99-pic30-elf.a(fcompare.EP_o) (__funpack2)
c:/program files/microchip/xc-dsc/v3.21/bin/bin/../../lib\libc99-pic30-elf.a(funpack.EP_o)
                              c:/program files/microchip/xc-dsc/v3.21/bin/bin/../../lib\libc99-pic30-elf.a(funpack2.EP_o) (__funpack)


Selected CodeGuard Options:
  FGS:GWRP:OFF
  FGS:GCP:OFF

CodeGuard FLASH Memory:
  boot    (none)
  secure  (none)
  general 0x200 to 0x2afea

CodeGuard RAM Memory:
  general 0x1000 to 0x8fff
  secure  (none)
  boot    (none)


xc-dsc-ld 3.21 (B)

Default Code Model: Small
Default Data Model: Large
Default Scalar Model: Small

"program" Memory  [Origin = 0x200, Length = 0x2adec]

section                    address   length (PC units)   length (bytes) (dec)
-------                    -------   -----------------   --------------------
.text                        0x200               0x618           0x924  (2340)
.const                       0x818                0x34            0x4e  (78)
.text                        0x84c               0xf28          0x16bc  (5820)
.text.MCAF_SystemStateMachine_StepIsr    0x1774               0x89e           0xced  (3309)
.text                       0x2012               0x510           0x798  (1944)
.text.MCAF_StallDetect      0x2522               0x436           0x651  (1617)
.text                       0x2958               0x75c           0xb0a  (2826)
.text.MCAF_EstimatorPllStep    0x30b4               0x2ee           0x465  (1125)
.text.MCAF_StartupTransitioningStep    0x33a2               0x290           0x3d8  (984)
.dinit                      0x3632               0x1ce           0x2b5  (693)
.text.MCAF_BootstrapChargeStepIsr    0x3800               0x1a2           0x273  (627)
.text.MCAF_VelocityAndCurrentControllerStep    0x39a2               0x19c           0x26a  (618)
.text.MCAF_FocStepIsrForwardPath    0x3b3e               0x17a           0x237  (567)
.text.MCAF_FocStepIsrFeedbackPath    0x3cb8               0x160           0x210  (528)
.text.MCAF_CommutationStep    0x3e18               0x100           0x180  (384)
.text.MCAF_UiFlashErrorCodeForever    0x3f18                0xf2           0x16b  (363)
.text.MCAF_SatDetect        0x400a                0xee           0x165  (357)
.text.MCAF_SystemStateMachine_Init    0x40f8                0xea           0x15f  (351)
.text                       0x41e2               0x184           0x246  (582)
.text.MCAF_SystemInit       0x4366                0xa8            0xfc  (252)
.text.PIN_MANAGER_Initialize    0x440e                0xa6            0xf9  (249)
.text.MCAF_FocInit          0x44b4                0xa2            0xf3  (243)
.text.PWM_Initialize        0x4556                0x96            0xe1  (225)
.text.APP_ApplicationStep    0x45ec                0x94            0xde  (222)
.text                       0x4680                0x94            0xde  (222)
.text.MCAF_MainInit         0x4714                0x88            0xcc  (204)
.text.MCAF_UiCalculateIndicatorState    0x479c                0x84            0xc6  (198)
.text.MCAF_SystemStateMachine_StepMain    0x4820                0x84            0xc6  (198)
.text.MCAF_ControllerPIUpdate    0x48a4                0x82            0xc3  (195)
.text.MCAF_ButtonService    0x4926                0x64            0x96  (150)
.text.MCAF_Recovery         0x498a                0x62            0x93  (147)
.text.MCAF_InitControlParameters_Motor1    0x49ec                0x5a            0x87  (135)
.text.MCAF_ADCRead          0x4a46                0x50            0x78  (120)
.text.MCAF_EstimatorPllInit    0x4a96                0x48            0x6c  (108)
.text.TRAPS_halt_on_error    0x4ade                0x48            0x6c  (108)
.text.MCAF_CommutationStartupInit    0x4b26                0x44            0x66  (102)
.text.MCAF_StartupTransitioningInit    0x4b6a                0x40            0x60  (96)
.text.MCAF_PIN_MANAGER_Initialize    0x4baa                0x40            0x60  (96)
.text.CLOCK_Initialize      0x4bea                0x3e            0x5d  (93)
.text                       0x4c28                0x3e            0x5d  (93)
.text.MCAF_MonitorSysDiagnose    0x4c66                0x3c            0x5a  (90)
.text.MCAF_CheckResetCause    0x4ca2                0x3a            0x57  (87)
.text.MCAF_FocStepIsrNonCriticalTask    0x4cdc                0x36            0x51  (81)
.text.MCAF_StallDetectInit    0x4d12                0x32            0x4b  (75)
.text.MCAF_MainLoop         0x4d44                0x32            0x4b  (75)
.text.MCAF_FaultDetect      0x4d76                0x30            0x48  (72)
.text.MCAF_VarianceDetectx16Reset    0x4da6                0x2e            0x45  (69)
.text.MCAF_ADCCompensationInit    0x4dd4                0x2e            0x45  (69)
.text.X2Cscope_Init         0x4e02                0x2c            0x42  (66)
.text.APP_ApplicationInitialize    0x4e2e                0x2a            0x3f  (63)
.text.HAL_ADC_StepIsrCallback    0x4e58                0x2a            0x3f  (63)
.text                       0x4e82                0x2a            0x3f  (63)
.text.MCAF_StallDetectReset    0x4eac                0x28            0x3c  (60)
.text.MCAF_UiStepMain       0x4ed4                0x28            0x3c  (60)
.text.MCAF_UiInit           0x4efc                0x26            0x39  (57)
.text.MCAF_VoltSatInit      0x4f22                0x26            0x39  (57)
.text.MCAF_TestHarness_Restart    0x4f48                0x24            0x36  (54)
.text.MCAF_TorqueAngleDetectInit    0x4f6c                0x24            0x36  (54)
.text.MCAF_MonitorIsFaultDetected    0x4f90                0x22            0x33  (51)
.text.MCAF_CommutationPrepareStallDetectInputs    0x4fb2                0x22            0x33  (51)
.text.SYSTEM_Initialize     0x4fd4                0x20            0x30  (48)
.text.MCAF_BoardServiceTasks    0x4ff4                0x20            0x30  (48)
.text.TMR2_Initialize       0x5014                0x1e            0x2d  (45)
.text.ADC1_Initialize       0x5032                0x1e            0x2d  (45)
.text.MCAF_VarianceDetectx16Init    0x5050                0x1e            0x2d  (45)
.text.MCAF_BoardServiceInit    0x506e                0x1c            0x2a  (42)
.text.INTERRUPT_Initialize    0x508a                0x1a            0x27  (39)
.text.MCAF_OvercurrentDetectInit    0x50a4                0x14            0x1e  (30)
.text.MCAF_NegativeEdDetectInit    0x50b8                0x14            0x1e  (30)
.text.MCAF_LowSpeedDetectInit    0x50cc                0x14            0x1e  (30)
.text.MCAF_TorqueAngleDetectReset    0x50e0                0x12            0x1b  (27)
.text.MCAF_UiSetupFlashErrorCode    0x50f2                0x12            0x1b  (27)
.text.MCAF_FaultDetectInit    0x5104                0x12            0x1b  (27)
.text.MCAF_SystemStart      0x5116                0x12            0x1b  (27)
.text.UART1_Initialize      0x5128                0x10            0x18  (24)
.text.UART1_Read            0x5138                0x10            0x18  (24)
.text.UART1_IsTxReady       0x5148                0x10            0x18  (24)
.text.stack_overflow_helper    0x5158                0x10            0x18  (24)
.text.MCAF_OvercurrentDetectReset    0x5168                0x10            0x18  (24)
.text.MCAF_ButtonInit       0x5178                0x10            0x18  (24)
.text.MCAF_SatInit          0x5188                0x10            0x18  (24)
.text.MCAF_RecoveryReset    0x5198                0x10            0x18  (24)
.text                       0x51a8                0x10            0x18  (24)
.text.MCAF_BootstrapChargeInit    0x51b8                 0xe            0x15  (21)
.text.MCAF_CurrentSatInit    0x51c6                 0xe            0x15  (21)
.text.MCAF_RecoveryInit     0x51d4                 0xe            0x15  (21)
.text.TMR1_Initialize       0x51e2                 0xc            0x12  (18)
.text.MCAF_NegativeEdDetectReset    0x51ee                 0xc            0x12  (18)
.text.MCAF_LowSpeedDetectReset    0x51fa                 0xc            0x12  (18)
.text.MCAF_ADCReadNonCritical    0x5206                 0xc            0x12  (18)
.text                       0x5212                 0xc            0x12  (18)
.text.UART1_Write           0x521e                 0xa             0xf  (15)
.text.TMR2_Start            0x5228                 0xa             0xf  (15)
.text.MCAF_FaultHandleInit    0x5232                 0xa             0xf  (15)
.text.TMR2_CallBack         0x523c                 0xa             0xf  (15)
.text.MCAF_DCLinkVoltageFaultDetectInit    0x5246                 0xa             0xf  (15)
.text.MCAF_CommutationInit    0x5250                 0xa             0xf  (15)
.text.TMR1_Start            0x525a                 0x8             0xc  (12)
.text.TMR2_SetInterruptHandler    0x5262                 0x8             0xc  (12)
.text.main                  0x526a                 0x8             0xc  (12)
.text.MCAF_SystemTestHarness_Init    0x5272                 0x8             0xc  (12)
.text.MCAF_UiStepIsr        0x527a                 0x8             0xc  (12)
.text.MCAF_MonitorRecoveryAcknowledged    0x5282                 0x8             0xc  (12)
.text.UART1_IsRxReady       0x528a                 0x6             0x9  (9)
.text.MCAF_FaultLatch_PowerupInit    0x5290                 0x6             0x9  (9)
.text.MCAF_MonitorInit      0x5296                 0x6             0x9  (9)
.text.MCAF_ButtonGp1_EventClear    0x529c                 0x6             0x9  (9)
.text.MCAF_ButtonGp2_EventClear    0x52a2                 0x6             0x9  (9)
.text.MCAF_FaultDetectReset    0x52a8                 0x6             0x9  (9)
.text.MCAF_DiagnosticsInit    0x52ae                 0x6             0x9  (9)
.text.HAL_Initialize        0x52b4                 0x6             0x9  (9)
.text.HAL_DMA_ErrorHandler    0x52ba                 0x6             0x9  (9)
.text.TMR1_Counter16BitGet    0x52c0                 0x4             0x6  (6)
.text.ADC1_SetInterruptHandler    0x52c4                 0x4             0x6  (6)
.text.PWM_SetSpecialEventInterruptHandler    0x52c8                 0x4             0x6  (6)
.text.MCAF_TestHarness_TriggerStackOverflow    0x52cc                 0x4             0x6  (6)
.text.MCAF_SystemStateInit    0x52d0                 0x4             0x6  (6)
.text.MCAF_ButtonGp1_EventGet    0x52d4                 0x4             0x6  (6)
.text.MCAF_ButtonGp2_EventGet    0x52d8                 0x4             0x6  (6)
.text.halt_on_error         0x52dc                 0x4             0x6  (6)
.text.X2Cscope_isSendReady    0x52e0                 0x4             0x6  (6)
.text.X2Cscope_isReceiveDataAvailable    0x52e4                 0x4             0x6  (6)
.text.X2Cscope_receiveSerial    0x52e8                 0x4             0x6  (6)
.text.X2Cscope_sendSerial    0x52ec                 0x4             0x6  (6)
.text.MCAF_DiagnosticsStepMain    0x52f0                 0x4             0x6  (6)
.text.MCAF_DiagnosticsStepIsr    0x52f4                 0x4             0x6  (6)
.text.ADC1_CallBack         0x52f8                 0x2             0x3  (3)
.text.PWM_SpecialEvent_CallBack    0x52fa                 0x2             0x3  (3)
.text.MCAF_EstimatorPllStartupInit    0x52fc                 0x2             0x3  (3)

                   Total "program" memory used (bytes):         0x797d  (31101) 11%


"data" Memory  [Origin = 0x1000, Length = 0x8000]

section                    address      alignment gaps    total length  (dec)
-------                    -------      --------------    -------------------
.nbss                       0x1000                   0           0x1e4  (484)
MCAF_persistent             0x11e4                   0             0x2  (2)
.ndata                      0x11e6                   0             0x2  (2)
MCAF_persistent             0x11e8                   0             0x2  (2)
.nbss                       0x11ea                   0             0x2  (2)
.ndata                      0x11ec                   0             0x2  (2)
x2cscope_data_buf           0x11ee                   0          0x1324  (4900)
.bss                        0x2512                   0           0x3b0  (944)
.bss                        0x28c2                   0            0x3e  (62)
.sinetbl                    0x2900                   0           0x200  (512)
.bss                        0x2b00                   0             0x4  (4)

                      Total "data" memory used (bytes):         0x1b04  (6916) 21%


Dynamic Memory Usage

region                     address                      maximum length  (dec)
------                     -------                      ---------------------
heap                             0                                   0  (0)
stack                       0x2b04                              0x54fc  (21756)

                        Maximum dynamic memory (bytes):         0x54fc  (21756)


Interrupt Handlers:
  0x4d6 __AD1Interrupt
  0x3e2 __PWMSpEventMatchInterrupt
  0x6e8 __ReservedTrap7
  0x382 __T2Interrupt


External Symbols in Data Memory (by address):

                    0x112a                  _TheTableStruct
                    0x1146                  _TScope
                    0x11de                  _TMR2_InterruptHandler
                    0x11e4                  _watchdog
                    0x11ec                  _TableStruct
                    0x2512                  _systemData
                    0x2530                  _motor
                    0x28e2                  _app
                    0x28fa                  _halData
                    0x2900                  _MC_SineTableInRam
                    0x2900                  MC_SineTableInRam

External Symbols in Data Memory (by name):

                    0x2900                  MC_SineTableInRam
                    0x2900                  _MC_SineTableInRam
                    0x11de                  _TMR2_InterruptHandler
                    0x1146                  _TScope
                    0x11ec                  _TableStruct
                    0x112a                  _TheTableStruct
                    0x28e2                  _app
                    0x28fa                  _halData
                    0x2530                  _motor
                    0x2512                  _systemData
                    0x11e4                  _watchdog

External Symbols in Program Memory (by address):

                  0x000200                  __resetPRI
                  0x00023c                  __psv_init
                  0x000248                  __data_init
                  0x000248                  __data_init_extended
                  0x000382                  __T2Interrupt
                  0x0003e2                  __PWMSpEventMatchInterrupt
                  0x0004d6                  __AD1Interrupt
                  0x0006e8                  __ReservedTrap7
                  0x0006ee                  __DefaultInterrupt
                  0x0006f8                  ___delay32
                  0x000716                  ___eqdf2
                  0x000716                  ___ledf2
                  0x000716                  ___ltdf2
                  0x000720                  ___gtdf2
                  0x000720                  ___gedf2
                  0x00072a                  ___eqsf2
                  0x00072a                  ___lesf2
                  0x00072a                  ___ltsf2
                  0x00072e                  ___gesf2
                  0x00072e                  ___gtsf2
                  0x000732                  __dcompare
                  0x000784                  __dtype
                  0x0007a8                  __fcompare
                  0x0007de                  __funpack2
                  0x0007ee                  __funpack
                  0x000818                  _parameterIdTable
                  0x000820                  _blockFunctionTable
                  0x000838                  _compilationDate
                  0x000b9c                  _Scope_Main_Init
                  0x000c0c                  _Scope_Main_Update
                  0x00100c                  _Scope_Main_Load
                  0x00109a                  _Scope_Main_Save
                  0x001772                  _Scope_Main_GetAddress
                  0x001774                  _MCAF_SystemStateMachine_StepIsr
                  0x002012                  _sendSvNotAvailable
                  0x002020                  generic-16dsp-epServices.o:_setTargetState
                  0x0020b6                  generic-16dsp-epServices.o:_getTargetState
                  0x0020cc                  generic-16dsp-epServices.o:_saveParameter
                  0x002230                  generic-16dsp-epServices.o:_getDeviceInfo
                  0x002406                  generic-16dsp-epServices.o:_loadParameter
                  0x0024ec                  _sendError
                  0x0024f8                  _initServiceTable
                  0x00250a                  _addCoreServices
                  0x002522                  _MCAF_StallDetect
                  0x002958                  generic-16dsp-epLNet.o:_enableSend
                  0x002962                  generic-16dsp-epLNet.o:_communicate
                  0x002d5a                  _initLNet
                  0x002d70                  _putRAMBlock
                  0x002eb6                  _getRAMBlock
                  0x002fa0                  _putBlockData
                  0x003026                  _getBlockData
                  0x00309c                  _addBlockServices
                  0x0030ac                  _addExtendedBlockServices
                  0x0030b4                  _MCAF_EstimatorPllStep
                  0x0033a2                  _MCAF_StartupTransitioningStep
                  0x003800                  _MCAF_BootstrapChargeStepIsr
                  0x0039a2                  _MCAF_VelocityAndCurrentControllerStep
                  0x003b3e                  _MCAF_FocStepIsrForwardPath
                  0x003cb8                  _MCAF_FocStepIsrFeedbackPath
                  0x003e18                  _MCAF_CommutationStep
                  0x003f18                  _MCAF_UiFlashErrorCodeForever
                  0x00400a                  _MCAF_SatDetect
                  0x0040f8                  _MCAF_SystemStateMachine_Init
                  0x0041e2                  _Common_Init
                  0x0041e4                  _Common_Update
                  0x0041e6                  _Common_Load
                  0x0041e8                  _Common_Save
                  0x0041f4                  _Common_GetAddress
                  0x0041f6                  _getAbsValI8
                  0x004204                  _getAbsValI16
                  0x004214                  _getAbsValI32
                  0x00422e                  _getAbsValI64
                  0x004276                  _getAbsValR32
                  0x004290                  _getAbsValR64
                  0x0042b8                  _sendSerialWrapper
                  0x0042be                  _receiveSerialWrapper
                  0x0042c2                  _isReceiveDataAvailableWrapper
                  0x0042c6                  _isSendReadyWrapper
                  0x0042ca                  _X2Cscope_Initialise
                  0x004342                  _X2Cscope_Communicate
                  0x004348                  _X2Cscope_Update
                  0x00434a                  _X2Cscope_HookUARTFunctions
                  0x004354                  _initSerial
                  0x004366                  _MCAF_SystemInit
                  0x00440e                  _PIN_MANAGER_Initialize
                  0x0044b4                  _MCAF_FocInit
                  0x004556                  _PWM_Initialize
                  0x0045ec                  _APP_ApplicationStep
                  0x004680                  _Q15SQRT
                  0x004680                  Q15SQRT
                  0x004714                  _MCAF_MainInit
                  0x00479c                  _MCAF_UiCalculateIndicatorState
                  0x004820                  _MCAF_SystemStateMachine_StepMain
                  0x0048a4                  _MCAF_ControllerPIUpdate
                  0x00498a                  _MCAF_Recovery
                  0x0049ec                  _MCAF_InitControlParameters_Motor1
                  0x004a46                  _MCAF_ADCRead
                  0x004a96                  _MCAF_EstimatorPllInit
                  0x004ade                  _TRAPS_halt_on_error
                  0x004b26                  _MCAF_CommutationStartupInit
                  0x004b6a                  _MCAF_StartupTransitioningInit
                  0x004baa                  _MCAF_PIN_MANAGER_Initialize
                  0x004bea                  _CLOCK_Initialize
                  0x004c28                  _initTableStruct
                  0x004c4c                  _addTableStructProtocol
                  0x004c66                  _MCAF_MonitorSysDiagnose
                  0x004ca2                  _MCAF_CheckResetCause
                  0x004cdc                  _MCAF_FocStepIsrNonCriticalTask
                  0x004d12                  _MCAF_StallDetectInit
                  0x004d44                  _MCAF_MainLoop
                  0x004d76                  _MCAF_FaultDetect
                  0x004da6                  _MCAF_VarianceDetectx16Reset
                  0x004dd4                  _MCAF_ADCCompensationInit
                  0x004e02                  _X2Cscope_Init
                  0x004e2e                  _APP_ApplicationInitialize
                  0x004e58                  _HAL_ADC_StepIsrCallback
                  0x004e82                  generic-16dsp-epSerialGeneric.o:_sendSerial
                  0x004e84                  generic-16dsp-epSerialGeneric.o:_receiveSerial
                  0x004e86                  generic-16dsp-epSerialGeneric.o:_flush
                  0x004e88                  generic-16dsp-epSerialGeneric.o:_isSendReady
                  0x004e8a                  generic-16dsp-epSerialGeneric.o:_getTxFifoFree
                  0x004e8c                  generic-16dsp-epSerialGeneric.o:_isReceiveDataAvailable
                  0x004e8e                  _initSerialGeneric
                  0x004ea8                  _linkSerial
                  0x004eac                  _MCAF_StallDetectReset
                  0x004ed4                  _MCAF_UiStepMain
                  0x004efc                  _MCAF_UiInit
                  0x004f22                  _MCAF_VoltSatInit
                  0x004f48                  _MCAF_TestHarness_Restart
                  0x004f6c                  _MCAF_TorqueAngleDetectInit
                  0x004f90                  _MCAF_MonitorIsFaultDetected
                  0x004fb2                  _MCAF_CommutationPrepareStallDetectInputs
                  0x004fd4                  _SYSTEM_Initialize
                  0x004ff4                  _MCAF_BoardServiceTasks
                  0x005014                  _TMR2_Initialize
                  0x005032                  _ADC1_Initialize
                  0x005050                  _MCAF_VarianceDetectx16Init
                  0x00506e                  _MCAF_BoardServiceInit
                  0x00508a                  _INTERRUPT_Initialize
                  0x0050a4                  _MCAF_OvercurrentDetectInit
                  0x0050b8                  _MCAF_NegativeEdDetectInit
                  0x0050cc                  _MCAF_LowSpeedDetectInit
                  0x0050e0                  _MCAF_TorqueAngleDetectReset
                  0x0050f2                  _MCAF_UiSetupFlashErrorCode
                  0x005104                  _MCAF_FaultDetectInit
                  0x005116                  _MCAF_SystemStart
                  0x005128                  _UART1_Initialize
                  0x005138                  _UART1_Read
                  0x005148                  _UART1_IsTxReady
                  0x005168                  _MCAF_OvercurrentDetectReset
                  0x005188                  _MCAF_SatInit
                  0x005198                  _MCAF_RecoveryReset
                  0x0051a8                  _initVersionInfo
                  0x0051b8                  _MCAF_BootstrapChargeInit
                  0x0051c6                  _MCAF_CurrentSatInit
                  0x0051d4                  _MCAF_RecoveryInit
                  0x0051e2                  _TMR1_Initialize
                  0x0051ee                  _MCAF_NegativeEdDetectReset
                  0x0051fa                  _MCAF_LowSpeedDetectReset
                  0x005206                  _MCAF_ADCReadNonCritical
                  0x005212                  _X2C_Init
                  0x00521a                  _X2C_Update
                  0x00521e                  _UART1_Write
                  0x005228                  _TMR2_Start
                  0x005232                  _MCAF_FaultHandleInit
                  0x00523c                  _TMR2_CallBack
                  0x005246                  _MCAF_DCLinkVoltageFaultDetectInit
                  0x005250                  _MCAF_CommutationInit
                  0x00525a                  _TMR1_Start
                  0x005262                  _TMR2_SetInterruptHandler
                  0x00526a                  _main
                  0x005272                  _MCAF_SystemTestHarness_Init
                  0x00527a                  _MCAF_UiStepIsr
                  0x005282                  _MCAF_MonitorRecoveryAcknowledged
                  0x00528a                  _UART1_IsRxReady
                  0x005290                  _MCAF_FaultLatch_PowerupInit
                  0x005296                  _MCAF_MonitorInit
                  0x00529c                  _MCAF_ButtonGp1_EventClear
                  0x0052a2                  _MCAF_ButtonGp2_EventClear
                  0x0052a8                  _MCAF_FaultDetectReset
                  0x0052ae                  _MCAF_DiagnosticsInit
                  0x0052b4                  _HAL_Initialize
                  0x0052ba                  _HAL_DMA_ErrorHandler
                  0x0052c0                  _TMR1_Counter16BitGet
                  0x0052c4                  _ADC1_SetInterruptHandler
                  0x0052c8                  _PWM_SetSpecialEventInterruptHandler
                  0x0052cc                  _MCAF_TestHarness_TriggerStackOverflow
                  0x0052d0                  _MCAF_SystemStateInit
                  0x0052d4                  _MCAF_ButtonGp1_EventGet
                  0x0052d8                  _MCAF_ButtonGp2_EventGet
                  0x0052dc                  _halt_on_error
                  0x0052e0                  build/default/production/mcc_generated_files/motorBench/diagnostics.o:_X2Cscope_isSendReady
                  0x0052e4                  build/default/production/mcc_generated_files/motorBench/diagnostics.o:_X2Cscope_isReceiveDataAvailable
                  0x0052e8                  build/default/production/mcc_generated_files/motorBench/diagnostics.o:_X2Cscope_receiveSerial
                  0x0052ec                  build/default/production/mcc_generated_files/motorBench/diagnostics.o:_X2Cscope_sendSerial
                  0x0052f0                  _MCAF_DiagnosticsStepMain
                  0x0052f4                  _MCAF_DiagnosticsStepIsr
                  0x0052fc                  _MCAF_EstimatorPllStartupInit
                  0x02affa                  __FGS.sec

External Symbols in Program Memory (by name):

                  0x004680                  Q15SQRT
                  0x005032                  _ADC1_Initialize
                  0x0052c4                  _ADC1_SetInterruptHandler
                  0x004e2e                  _APP_ApplicationInitialize
                  0x0045ec                  _APP_ApplicationStep
                  0x004bea                  _CLOCK_Initialize
                  0x0041f4                  _Common_GetAddress
                  0x0041e2                  _Common_Init
                  0x0041e6                  _Common_Load
                  0x0041e8                  _Common_Save
                  0x0041e4                  _Common_Update
                  0x004e58                  _HAL_ADC_StepIsrCallback
                  0x0052ba                  _HAL_DMA_ErrorHandler
                  0x0052b4                  _HAL_Initialize
                  0x00508a                  _INTERRUPT_Initialize
                  0x004dd4                  _MCAF_ADCCompensationInit
                  0x004a46                  _MCAF_ADCRead
                  0x005206                  _MCAF_ADCReadNonCritical
                  0x00506e                  _MCAF_BoardServiceInit
                  0x004ff4                  _MCAF_BoardServiceTasks
                  0x0051b8                  _MCAF_BootstrapChargeInit
                  0x003800                  _MCAF_BootstrapChargeStepIsr
                  0x00529c                  _MCAF_ButtonGp1_EventClear
                  0x0052d4                  _MCAF_ButtonGp1_EventGet
                  0x0052a2                  _MCAF_ButtonGp2_EventClear
                  0x0052d8                  _MCAF_ButtonGp2_EventGet
                  0x004ca2                  _MCAF_CheckResetCause
                  0x005250                  _MCAF_CommutationInit
                  0x004fb2                  _MCAF_CommutationPrepareStallDetectInputs
                  0x004b26                  _MCAF_CommutationStartupInit
                  0x003e18                  _MCAF_CommutationStep
                  0x0048a4                  _MCAF_ControllerPIUpdate
                  0x0051c6                  _MCAF_CurrentSatInit
                  0x005246                  _MCAF_DCLinkVoltageFaultDetectInit
                  0x0052ae                  _MCAF_DiagnosticsInit
                  0x0052f4                  _MCAF_DiagnosticsStepIsr
                  0x0052f0                  _MCAF_DiagnosticsStepMain
                  0x004a96                  _MCAF_EstimatorPllInit
                  0x0052fc                  _MCAF_EstimatorPllStartupInit
                  0x0030b4                  _MCAF_EstimatorPllStep
                  0x004d76                  _MCAF_FaultDetect
                  0x005104                  _MCAF_FaultDetectInit
                  0x0052a8                  _MCAF_FaultDetectReset
                  0x005232                  _MCAF_FaultHandleInit
                  0x005290                  _MCAF_FaultLatch_PowerupInit
                  0x0044b4                  _MCAF_FocInit
                  0x003cb8                  _MCAF_FocStepIsrFeedbackPath
                  0x003b3e                  _MCAF_FocStepIsrForwardPath
                  0x004cdc                  _MCAF_FocStepIsrNonCriticalTask
                  0x0049ec                  _MCAF_InitControlParameters_Motor1
                  0x0050cc                  _MCAF_LowSpeedDetectInit
                  0x0051fa                  _MCAF_LowSpeedDetectReset
                  0x004714                  _MCAF_MainInit
                  0x004d44                  _MCAF_MainLoop
                  0x005296                  _MCAF_MonitorInit
                  0x004f90                  _MCAF_MonitorIsFaultDetected
                  0x005282                  _MCAF_MonitorRecoveryAcknowledged
                  0x004c66                  _MCAF_MonitorSysDiagnose
                  0x0050b8                  _MCAF_NegativeEdDetectInit
                  0x0051ee                  _MCAF_NegativeEdDetectReset
                  0x0050a4                  _MCAF_OvercurrentDetectInit
                  0x005168                  _MCAF_OvercurrentDetectReset
                  0x004baa                  _MCAF_PIN_MANAGER_Initialize
                  0x00498a                  _MCAF_Recovery
                  0x0051d4                  _MCAF_RecoveryInit
                  0x005198                  _MCAF_RecoveryReset
                  0x00400a                  _MCAF_SatDetect
                  0x005188                  _MCAF_SatInit
                  0x002522                  _MCAF_StallDetect
                  0x004d12                  _MCAF_StallDetectInit
                  0x004eac                  _MCAF_StallDetectReset
                  0x004b6a                  _MCAF_StartupTransitioningInit
                  0x0033a2                  _MCAF_StartupTransitioningStep
                  0x004366                  _MCAF_SystemInit
                  0x005116                  _MCAF_SystemStart
                  0x0052d0                  _MCAF_SystemStateInit
                  0x0040f8                  _MCAF_SystemStateMachine_Init
                  0x001774                  _MCAF_SystemStateMachine_StepIsr
                  0x004820                  _MCAF_SystemStateMachine_StepMain
                  0x005272                  _MCAF_SystemTestHarness_Init
                  0x004f48                  _MCAF_TestHarness_Restart
                  0x0052cc                  _MCAF_TestHarness_TriggerStackOverflow
                  0x004f6c                  _MCAF_TorqueAngleDetectInit
                  0x0050e0                  _MCAF_TorqueAngleDetectReset
                  0x00479c                  _MCAF_UiCalculateIndicatorState
                  0x003f18                  _MCAF_UiFlashErrorCodeForever
                  0x004efc                  _MCAF_UiInit
                  0x0050f2                  _MCAF_UiSetupFlashErrorCode
                  0x00527a                  _MCAF_UiStepIsr
                  0x004ed4                  _MCAF_UiStepMain
                  0x005050                  _MCAF_VarianceDetectx16Init
                  0x004da6                  _MCAF_VarianceDetectx16Reset
                  0x0039a2                  _MCAF_VelocityAndCurrentControllerStep
                  0x004f22                  _MCAF_VoltSatInit
                  0x00440e                  _PIN_MANAGER_Initialize
                  0x004556                  _PWM_Initialize
                  0x0052c8                  _PWM_SetSpecialEventInterruptHandler
                  0x004680                  _Q15SQRT
                  0x004fd4                  _SYSTEM_Initialize
                  0x001772                  _Scope_Main_GetAddress
                  0x000b9c                  _Scope_Main_Init
                  0x00100c                  _Scope_Main_Load
                  0x00109a                  _Scope_Main_Save
                  0x000c0c                  _Scope_Main_Update
                  0x0052c0                  _TMR1_Counter16BitGet
                  0x0051e2                  _TMR1_Initialize
                  0x00525a                  _TMR1_Start
                  0x00523c                  _TMR2_CallBack
                  0x005014                  _TMR2_Initialize
                  0x005262                  _TMR2_SetInterruptHandler
                  0x005228                  _TMR2_Start
                  0x004ade                  _TRAPS_halt_on_error
                  0x005128                  _UART1_Initialize
                  0x00528a                  _UART1_IsRxReady
                  0x005148                  _UART1_IsTxReady
                  0x005138                  _UART1_Read
                  0x00521e                  _UART1_Write
                  0x005212                  _X2C_Init
                  0x00521a                  _X2C_Update
                  0x004342                  _X2Cscope_Communicate
                  0x00434a                  _X2Cscope_HookUARTFunctions
                  0x004e02                  _X2Cscope_Init
                  0x0042ca                  _X2Cscope_Initialise
                  0x004348                  _X2Cscope_Update
                  0x0004d6                  __AD1Interrupt
                  0x0006ee                  __DefaultInterrupt
                  0x02affa                  __FGS.sec
                  0x0003e2                  __PWMSpEventMatchInterrupt
                  0x0006e8                  __ReservedTrap7
                  0x000382                  __T2Interrupt
                  0x0006f8                  ___delay32
                  0x000716                  ___eqdf2
                  0x00072a                  ___eqsf2
                  0x000720                  ___gedf2
                  0x00072e                  ___gesf2
                  0x000720                  ___gtdf2
                  0x00072e                  ___gtsf2
                  0x000716                  ___ledf2
                  0x00072a                  ___lesf2
                  0x000716                  ___ltdf2
                  0x00072a                  ___ltsf2
                  0x000248                  __data_init
                  0x000248                  __data_init_extended
                  0x000732                  __dcompare
                  0x000784                  __dtype
                  0x0007a8                  __fcompare
                  0x0007ee                  __funpack
                  0x0007de                  __funpack2
                  0x00023c                  __psv_init
                  0x000200                  __resetPRI
                  0x00309c                  _addBlockServices
                  0x00250a                  _addCoreServices
                  0x0030ac                  _addExtendedBlockServices
                  0x004c4c                  _addTableStructProtocol
                  0x000820                  _blockFunctionTable
                  0x000838                  _compilationDate
                  0x004204                  _getAbsValI16
                  0x004214                  _getAbsValI32
                  0x00422e                  _getAbsValI64
                  0x0041f6                  _getAbsValI8
                  0x004276                  _getAbsValR32
                  0x004290                  _getAbsValR64
                  0x003026                  _getBlockData
                  0x002eb6                  _getRAMBlock
                  0x0052dc                  _halt_on_error
                  0x002d5a                  _initLNet
                  0x004354                  _initSerial
                  0x004e8e                  _initSerialGeneric
                  0x0024f8                  _initServiceTable
                  0x004c28                  _initTableStruct
                  0x0051a8                  _initVersionInfo
                  0x0042c2                  _isReceiveDataAvailableWrapper
                  0x0042c6                  _isSendReadyWrapper
                  0x004ea8                  _linkSerial
                  0x00526a                  _main
                  0x000818                  _parameterIdTable
                  0x002fa0                  _putBlockData
                  0x002d70                  _putRAMBlock
                  0x0042be                  _receiveSerialWrapper
                  0x0024ec                  _sendError
                  0x0042b8                  _sendSerialWrapper
                  0x002012                  _sendSvNotAvailable
                  0x0052e4                  build/default/production/mcc_generated_files/motorBench/diagnostics.o:_X2Cscope_isReceiveDataAvailable
                  0x0052e0                  build/default/production/mcc_generated_files/motorBench/diagnostics.o:_X2Cscope_isSendReady
                  0x0052e8                  build/default/production/mcc_generated_files/motorBench/diagnostics.o:_X2Cscope_receiveSerial
                  0x0052ec                  build/default/production/mcc_generated_files/motorBench/diagnostics.o:_X2Cscope_sendSerial
                  0x002962                  generic-16dsp-epLNet.o:_communicate
                  0x002958                  generic-16dsp-epLNet.o:_enableSend
                  0x004e86                  generic-16dsp-epSerialGeneric.o:_flush
                  0x004e8a                  generic-16dsp-epSerialGeneric.o:_getTxFifoFree
                  0x004e8c                  generic-16dsp-epSerialGeneric.o:_isReceiveDataAvailable
                  0x004e88                  generic-16dsp-epSerialGeneric.o:_isSendReady
                  0x004e84                  generic-16dsp-epSerialGeneric.o:_receiveSerial
                  0x004e82                  generic-16dsp-epSerialGeneric.o:_sendSerial
                  0x002230                  generic-16dsp-epServices.o:_getDeviceInfo
                  0x0020b6                  generic-16dsp-epServices.o:_getTargetState
                  0x002406                  generic-16dsp-epServices.o:_loadParameter
                  0x0020cc                  generic-16dsp-epServices.o:_saveParameter
                  0x002020                  generic-16dsp-epServices.o:_setTargetState

Discarded input sections

 .text              0x0000          0x0 build/default/production/mcc_generated_files/tmr1.o
 .data              0x0000          0x0 build/default/production/mcc_generated_files/tmr1.o
 .text.TMR1_Tasks_16BitOperation
                    0x0000         0x14 build/default/production/mcc_generated_files/tmr1.o
 .text.TMR1_Period16BitSet
                    0x0000          0x8 build/default/production/mcc_generated_files/tmr1.o
 .text.TMR1_Period16BitGet
                    0x0000          0x4 build/default/production/mcc_generated_files/tmr1.o
 .text.TMR1_Counter16BitSet
                    0x0000          0x8 build/default/production/mcc_generated_files/tmr1.o
 .text.TMR1_Stop
                    0x0000          0x4 build/default/production/mcc_generated_files/tmr1.o
 .text.TMR1_GetElapsedThenClear
                    0x0000          0xe build/default/production/mcc_generated_files/tmr1.o
 .text.TMR1_SoftwareCounterGet
                    0x0000          0x8 build/default/production/mcc_generated_files/tmr1.o
 .text.TMR1_SoftwareCounterClear
                    0x0000          0x8 build/default/production/mcc_generated_files/tmr1.o
 .text              0x0000          0x0 build/default/production/mcc_generated_files/uart1.o
 .data              0x0000          0x0 build/default/production/mcc_generated_files/uart1.o
 .bss               0x0000          0x0 build/default/production/mcc_generated_files/uart1.o
 .text.UART1_IsTxDone
                    0x0000          0x8 build/default/production/mcc_generated_files/uart1.o
 .text.UART1_StatusGet
                    0x0000          0x4 build/default/production/mcc_generated_files/uart1.o
 .text.UART1_Enable
                    0x0000          0x6 build/default/production/mcc_generated_files/uart1.o
 .text.UART1_Disable
                    0x0000          0x6 build/default/production/mcc_generated_files/uart1.o
 .text              0x0000          0x0 build/default/production/mcc_generated_files/tmr2.o
 .data              0x0000          0x0 build/default/production/mcc_generated_files/tmr2.o
 .text.TMR2_CallBack
                    0x0000          0x2 build/default/production/mcc_generated_files/tmr2.o
 .text.TMR2_Period16BitSet
                    0x0000          0x8 build/default/production/mcc_generated_files/tmr2.o
 .text.TMR2_Period16BitGet
                    0x0000          0x4 build/default/production/mcc_generated_files/tmr2.o
 .text.TMR2_Counter16BitSet
                    0x0000          0x8 build/default/production/mcc_generated_files/tmr2.o
 .text.TMR2_Counter16BitGet
                    0x0000          0x4 build/default/production/mcc_generated_files/tmr2.o
 .text.TMR2_Stop
                    0x0000          0x6 build/default/production/mcc_generated_files/tmr2.o
 .text.TMR2_GetElapsedThenClear
                    0x0000          0xe build/default/production/mcc_generated_files/tmr2.o
 .text.TMR2_SoftwareCounterGet
                    0x0000          0x8 build/default/production/mcc_generated_files/tmr2.o
 .text.TMR2_SoftwareCounterClear
                    0x0000          0x8 build/default/production/mcc_generated_files/tmr2.o
 .text              0x0000          0x0 build/default/production/mcc_generated_files/reset.o
 .data              0x0000          0x0 build/default/production/mcc_generated_files/reset.o
 .bss               0x0000          0x0 build/default/production/mcc_generated_files/reset.o
 .text.RESET_CauseFromTrap
                    0x0000          0x4 build/default/production/mcc_generated_files/reset.o
 .text.RESET_CauseFromIllegalOpcode
                    0x0000          0x6 build/default/production/mcc_generated_files/reset.o
 .text.RESET_CauseFromConfigurationMismatch
                    0x0000          0x6 build/default/production/mcc_generated_files/reset.o
 .text.RESET_CauseFromExternal
                    0x0000          0x6 build/default/production/mcc_generated_files/reset.o
 .text.RESET_CauseFromSoftware
                    0x0000          0x6 build/default/production/mcc_generated_files/reset.o
 .text.RESET_CauseFromWatchdogTimer
                    0x0000          0x6 build/default/production/mcc_generated_files/reset.o
 .text.RESET_CauseClear
                    0x0000          0x8 build/default/production/mcc_generated_files/reset.o
 .text.RESET_GetCause
                    0x0000          0x4 build/default/production/mcc_generated_files/reset.o
 .text.RESET_CauseHandler
                    0x0000         0x5c build/default/production/mcc_generated_files/reset.o
 .text.RESET_CauseClearAll
                    0x0000          0x4 build/default/production/mcc_generated_files/reset.o
 .debug_frame       0x0000         0xbc build/default/production/mcc_generated_files/reset.o
 .debug_info        0x0000        0x6c6 build/default/production/mcc_generated_files/reset.o
 .debug_abbrev      0x0000        0x159 build/default/production/mcc_generated_files/reset.o
 .debug_loc         0x0000        0x240 build/default/production/mcc_generated_files/reset.o
 .debug_aranges
                    0x0000         0x68 build/default/production/mcc_generated_files/reset.o
 .debug_ranges      0x0000         0x58 build/default/production/mcc_generated_files/reset.o
 .debug_line        0x0000        0x292 build/default/production/mcc_generated_files/reset.o
 .debug_str         0x0000         0x17 build/default/production/mcc_generated_files/reset.o
 .comment           0x0000         0x58 build/default/production/mcc_generated_files/reset.o
 __c30_signature
                    0x0000          0x6 build/default/production/mcc_generated_files/reset.o
 .text              0x0000          0x0 build/default/production/mcc_generated_files/system.o
 .data              0x0000          0x0 build/default/production/mcc_generated_files/system.o
 .bss               0x0000          0x0 build/default/production/mcc_generated_files/system.o
 .text              0x0000          0x0 build/default/production/mcc_generated_files/adc1.o
 .data              0x0000          0x0 build/default/production/mcc_generated_files/adc1.o
 .bss               0x0000          0x0 build/default/production/mcc_generated_files/adc1.o
 .text              0x0000          0x0 build/default/production/mcc_generated_files/clock.o
 .data              0x0000          0x0 build/default/production/mcc_generated_files/clock.o
 .bss               0x0000          0x0 build/default/production/mcc_generated_files/clock.o
 .text              0x0000          0x0 build/default/production/mcc_generated_files/interrupt_manager.o
 .data              0x0000          0x0 build/default/production/mcc_generated_files/interrupt_manager.o
 .bss               0x0000          0x0 build/default/production/mcc_generated_files/interrupt_manager.o
 .text              0x0000          0x0 build/default/production/mcc_generated_files/pwm.o
 .data              0x0000          0x0 build/default/production/mcc_generated_files/pwm.o
 .bss               0x0000          0x0 build/default/production/mcc_generated_files/pwm.o
 .text.PWM_Generator1_CallBack
                    0x0000          0x2 build/default/production/mcc_generated_files/pwm.o
 .text.PWM_Generator1_Tasks
                    0x0000          0xc build/default/production/mcc_generated_files/pwm.o
 .text.PWM_Generator2_CallBack
                    0x0000          0x2 build/default/production/mcc_generated_files/pwm.o
 .text.PWM_Generator2_Tasks
                    0x0000          0xc build/default/production/mcc_generated_files/pwm.o
 .text.PWM_Generator3_CallBack
                    0x0000          0x2 build/default/production/mcc_generated_files/pwm.o
 .text.PWM_Generator3_Tasks
                    0x0000          0xc build/default/production/mcc_generated_files/pwm.o
 .text              0x0000         0x10 build/default/production/mcc_generated_files/where_was_i.o
 .data              0x0000          0x0 build/default/production/mcc_generated_files/where_was_i.o
 .bss               0x0000          0x0 build/default/production/mcc_generated_files/where_was_i.o
 mcc_generated_files/where_was_i.s.scn1
                    0x0000          0x4 build/default/production/mcc_generated_files/where_was_i.o
 .debug_line        0x0000         0x58 build/default/production/mcc_generated_files/where_was_i.o
 .debug_info        0x0000         0x26 build/default/production/mcc_generated_files/where_was_i.o
 .debug_abbrev      0x0000         0x14 build/default/production/mcc_generated_files/where_was_i.o
 .debug_aranges
                    0x0000         0x20 build/default/production/mcc_generated_files/where_was_i.o
 .debug_str         0x0000         0x65 build/default/production/mcc_generated_files/where_was_i.o
 .text              0x0000          0x0 build/default/production/mcc_generated_files/traps.o
 .data              0x0000          0x0 build/default/production/mcc_generated_files/traps.o
 .text.TRAPS_halt_on_error
                    0x0000          0x4 build/default/production/mcc_generated_files/traps.o
 .text              0x0000          0x0 build/default/production/mcc_generated_files/mcc.o
 .data              0x0000          0x0 build/default/production/mcc_generated_files/mcc.o
 .bss               0x0000          0x0 build/default/production/mcc_generated_files/mcc.o
 .debug_line        0x0000          0x0 build/default/production/mcc_generated_files/mcc.o
 .debug_str         0x0000          0x0 build/default/production/mcc_generated_files/mcc.o
 .comment           0x0000         0x58 build/default/production/mcc_generated_files/mcc.o
 __c30_signature
                    0x0000          0x6 build/default/production/mcc_generated_files/mcc.o
 .text              0x0000          0x0 build/default/production/mcc_generated_files/pin_manager.o
 .data              0x0000          0x0 build/default/production/mcc_generated_files/pin_manager.o
 .bss               0x0000          0x0 build/default/production/mcc_generated_files/pin_manager.o
 .text              0x0000          0x0 build/default/production/main.o
 .data              0x0000          0x0 build/default/production/main.o
 .bss               0x0000          0x0 build/default/production/main.o
 .text              0x0000          0x0 build/default/production/mcc_generated_files/motorBench/test_harness.o
 .data              0x0000          0x0 build/default/production/mcc_generated_files/motorBench/test_harness.o
 .bss               0x0000          0x0 build/default/production/mcc_generated_files/motorBench/test_harness.o
 .text              0x0000          0x0 build/default/production/mcc_generated_files/motorBench/stall_detect.o
 .data              0x0000          0x0 build/default/production/mcc_generated_files/motorBench/stall_detect.o
 .bss               0x0000          0x0 build/default/production/mcc_generated_files/motorBench/stall_detect.o
 .text.MCAF_VarianceDetectx16
                    0x0000         0xce build/default/production/mcc_generated_files/motorBench/stall_detect.o
 .text.MCAF_VarianceDetectx16PostDecimation
                    0x0000         0x86 build/default/production/mcc_generated_files/motorBench/stall_detect.o
 .text.MCAF_TorqueAngleDetect
                    0x0000        0x102 build/default/production/mcc_generated_files/motorBench/stall_detect.o
 .text.MCAF_OvercurrentDetect
                    0x0000         0x84 build/default/production/mcc_generated_files/motorBench/stall_detect.o
 .text.MCAF_NegativeEdDetect
                    0x0000         0x74 build/default/production/mcc_generated_files/motorBench/stall_detect.o
 .text.MCAF_LowSpeedDetect
                    0x0000         0x76 build/default/production/mcc_generated_files/motorBench/stall_detect.o
 .text              0x0000          0x0 build/default/production/mcc_generated_files/motorBench/metadata/data_model_snapshot.o
 .data              0x0000          0x0 build/default/production/mcc_generated_files/motorBench/metadata/data_model_snapshot.o
 .bss               0x0000          0x0 build/default/production/mcc_generated_files/motorBench/metadata/data_model_snapshot.o
 .debug_info        0x0000        0x210 build/default/production/mcc_generated_files/motorBench/metadata/data_model_snapshot.o
 .debug_abbrev      0x0000         0x40 build/default/production/mcc_generated_files/motorBench/metadata/data_model_snapshot.o
 .debug_aranges
                    0x0000         0x18 build/default/production/mcc_generated_files/motorBench/metadata/data_model_snapshot.o
 .debug_line        0x0000         0x5e build/default/production/mcc_generated_files/motorBench/metadata/data_model_snapshot.o
 .debug_str         0x0000          0x0 build/default/production/mcc_generated_files/motorBench/metadata/data_model_snapshot.o
 .comment           0x0000         0x58 build/default/production/mcc_generated_files/motorBench/metadata/data_model_snapshot.o
 __c30_signature
                    0x0000          0x6 build/default/production/mcc_generated_files/motorBench/metadata/data_model_snapshot.o
 .text              0x0000          0x0 build/default/production/mcc_generated_files/motorBench/mcaf_main.o
 .data              0x0000          0x0 build/default/production/mcc_generated_files/motorBench/mcaf_main.o
 .text              0x0000          0x0 build/default/production/mcc_generated_files/motorBench/test_harness_timestamps.o
 .data              0x0000          0x0 build/default/production/mcc_generated_files/motorBench/test_harness_timestamps.o
 .bss               0x0000          0x0 build/default/production/mcc_generated_files/motorBench/test_harness_timestamps.o
 .debug_info        0x0000        0x209 build/default/production/mcc_generated_files/motorBench/test_harness_timestamps.o
 .debug_abbrev      0x0000         0x40 build/default/production/mcc_generated_files/motorBench/test_harness_timestamps.o
 .debug_aranges
                    0x0000         0x18 build/default/production/mcc_generated_files/motorBench/test_harness_timestamps.o
 .debug_line        0x0000         0x59 build/default/production/mcc_generated_files/motorBench/test_harness_timestamps.o
 .debug_str         0x0000          0x0 build/default/production/mcc_generated_files/motorBench/test_harness_timestamps.o
 .comment           0x0000         0x58 build/default/production/mcc_generated_files/motorBench/test_harness_timestamps.o
 __c30_signature
                    0x0000          0x6 build/default/production/mcc_generated_files/motorBench/test_harness_timestamps.o
 .text              0x0000          0x0 build/default/production/mcc_generated_files/motorBench/startup.o
 .data              0x0000          0x0 build/default/production/mcc_generated_files/motorBench/startup.o
 .bss               0x0000          0x0 build/default/production/mcc_generated_files/motorBench/startup.o
 .text              0x0000          0x0 build/default/production/mcc_generated_files/motorBench/hal/mcaf_pin_manager.o
 .data              0x0000          0x0 build/default/production/mcc_generated_files/motorBench/hal/mcaf_pin_manager.o
 .bss               0x0000          0x0 build/default/production/mcc_generated_files/motorBench/hal/mcaf_pin_manager.o
 .text              0x0000          0x0 build/default/production/mcc_generated_files/motorBench/fault_handle.o
 .data              0x0000          0x0 build/default/production/mcc_generated_files/motorBench/fault_handle.o
 .bss               0x0000          0x0 build/default/production/mcc_generated_files/motorBench/fault_handle.o
 .text              0x0000          0x0 build/default/production/mcc_generated_files/motorBench/mcaf_sample_application.o
 .data              0x0000          0x0 build/default/production/mcc_generated_files/motorBench/mcaf_sample_application.o
 .text              0x0000          0x0 build/default/production/mcc_generated_files/motorBench/ui.o
 .data              0x0000          0x0 build/default/production/mcc_generated_files/motorBench/ui.o
 .text              0x0000          0x0 build/default/production/mcc_generated_files/motorBench/monitor.o
 .data              0x0000          0x0 build/default/production/mcc_generated_files/motorBench/monitor.o
 .bss               0x0000          0x0 build/default/production/mcc_generated_files/motorBench/monitor.o
 .text              0x0000          0x0 build/default/production/mcc_generated_files/motorBench/hal/qei1.o
 .data              0x0000          0x0 build/default/production/mcc_generated_files/motorBench/hal/qei1.o
 .bss               0x0000          0x0 build/default/production/mcc_generated_files/motorBench/hal/qei1.o
 .text.QEI1_Initialize
                    0x0000         0x1a build/default/production/mcc_generated_files/motorBench/hal/qei1.o
 .debug_frame       0x0000         0x24 build/default/production/mcc_generated_files/motorBench/hal/qei1.o
 .debug_info        0x0000        0x3e9 build/default/production/mcc_generated_files/motorBench/hal/qei1.o
 .debug_abbrev      0x0000         0x99 build/default/production/mcc_generated_files/motorBench/hal/qei1.o
 .debug_aranges
                    0x0000         0x20 build/default/production/mcc_generated_files/motorBench/hal/qei1.o
 .debug_ranges      0x0000         0x10 build/default/production/mcc_generated_files/motorBench/hal/qei1.o
 .debug_line        0x0000        0x15f build/default/production/mcc_generated_files/motorBench/hal/qei1.o
 .debug_str         0x0000          0x0 build/default/production/mcc_generated_files/motorBench/hal/qei1.o
 .comment           0x0000         0x58 build/default/production/mcc_generated_files/motorBench/hal/qei1.o
 __c30_signature
                    0x0000          0x6 build/default/production/mcc_generated_files/motorBench/hal/qei1.o
 .text              0x0000          0x0 build/default/production/mcc_generated_files/motorBench/isr.o
 .data              0x0000          0x0 build/default/production/mcc_generated_files/motorBench/isr.o
 .bss               0x0000          0x0 build/default/production/mcc_generated_files/motorBench/isr.o
 .text              0x0000          0x0 build/default/production/mcc_generated_files/motorBench/system_state.o
 .data              0x0000          0x0 build/default/production/mcc_generated_files/motorBench/system_state.o
 .bss               0x0000          0x0 build/default/production/mcc_generated_files/motorBench/system_state.o
 .text              0x0000          0x0 build/default/production/mcc_generated_files/motorBench/current_measure.o
 .data              0x0000          0x0 build/default/production/mcc_generated_files/motorBench/current_measure.o
 .bss               0x0000          0x0 build/default/production/mcc_generated_files/motorBench/current_measure.o
 .text.MCAF_ComputeDutyCycleOutputs
                    0x0000         0xba build/default/production/mcc_generated_files/motorBench/current_measure.o
 .text              0x0000          0x0 build/default/production/mcc_generated_files/motorBench/board_service.o
 .data              0x0000          0x0 build/default/production/mcc_generated_files/motorBench/board_service.o
 .bss               0x0000          0x0 build/default/production/mcc_generated_files/motorBench/board_service.o
 .text.MCAF_BoardServiceStepMain
                    0x0000          0x2 build/default/production/mcc_generated_files/motorBench/board_service.o
 .text              0x0000          0x0 build/default/production/mcc_generated_files/motorBench/foc.o
 .data              0x0000          0x0 build/default/production/mcc_generated_files/motorBench/foc.o
 .bss               0x0000          0x0 build/default/production/mcc_generated_files/motorBench/foc.o
 .text.MCAF_ComputeReciprocalDCLinkVoltage
                    0x0000         0x12 build/default/production/mcc_generated_files/motorBench/foc.o
 .text.MCAF_FocStepMain
                    0x0000          0x2 build/default/production/mcc_generated_files/motorBench/foc.o
 .text              0x0000          0x0 build/default/production/mcc_generated_files/motorBench/mcapi.o
 .data              0x0000          0x0 build/default/production/mcc_generated_files/motorBench/mcapi.o
 .bss               0x0000          0x0 build/default/production/mcc_generated_files/motorBench/mcapi.o
 .text.MCAPI_AdcIsrProlog
                    0x0000          0x2 build/default/production/mcc_generated_files/motorBench/mcapi.o
 .text.MCAPI_AdcIsrEpilog
                    0x0000          0x2 build/default/production/mcc_generated_files/motorBench/mcapi.o
 .debug_frame       0x0000         0x34 build/default/production/mcc_generated_files/motorBench/mcapi.o
 .debug_info        0x0000        0x299 build/default/production/mcc_generated_files/motorBench/mcapi.o
 .debug_abbrev      0x0000         0x3b build/default/production/mcc_generated_files/motorBench/mcapi.o
 .debug_aranges
                    0x0000         0x28 build/default/production/mcc_generated_files/motorBench/mcapi.o
 .debug_ranges      0x0000         0x18 build/default/production/mcc_generated_files/motorBench/mcapi.o
 .debug_line        0x0000         0x6c build/default/production/mcc_generated_files/motorBench/mcapi.o
 .debug_str         0x0000          0x0 build/default/production/mcc_generated_files/motorBench/mcapi.o
 .comment           0x0000         0x58 build/default/production/mcc_generated_files/motorBench/mcapi.o
 __c30_signature
                    0x0000          0x6 build/default/production/mcc_generated_files/motorBench/mcapi.o
 .text              0x0000          0x0 build/default/production/mcc_generated_files/motorBench/gate_drive.o
 .data              0x0000          0x0 build/default/production/mcc_generated_files/motorBench/gate_drive.o
 .bss               0x0000          0x0 build/default/production/mcc_generated_files/motorBench/gate_drive.o
 .text              0x0000          0x0 build/default/production/mcc_generated_files/motorBench/fault_detect.o
 .data              0x0000          0x0 build/default/production/mcc_generated_files/motorBench/fault_detect.o
 .bss               0x0000          0x0 build/default/production/mcc_generated_files/motorBench/fault_detect.o
 .text              0x0000          0x0 build/default/production/mcc_generated_files/motorBench/commutation/pll.o
 .data              0x0000          0x0 build/default/production/mcc_generated_files/motorBench/commutation/pll.o
 .bss               0x0000          0x0 build/default/production/mcc_generated_files/motorBench/commutation/pll.o
 .text              0x0000          0x0 build/default/production/mcc_generated_files/motorBench/mcaf_traps.o
 .data              0x0000          0x0 build/default/production/mcc_generated_files/motorBench/mcaf_traps.o
 .bss               0x0000          0x0 build/default/production/mcc_generated_files/motorBench/mcaf_traps.o
 .text              0x0000          0x0 build/default/production/mcc_generated_files/motorBench/diagnostics.o
 .data              0x0000          0x0 build/default/production/mcc_generated_files/motorBench/diagnostics.o
 .bss               0x0000          0x0 build/default/production/mcc_generated_files/motorBench/diagnostics.o
 .text              0x0000          0x0 build/default/production/mcc_generated_files/motorBench/system_init.o
 .data              0x0000          0x0 build/default/production/mcc_generated_files/motorBench/system_init.o
 .bss               0x0000          0x0 build/default/production/mcc_generated_files/motorBench/system_init.o
 .data              0x0000          0x0 build/default/production/mcc_generated_files/motorBench/math_asm.o
 .bss               0x0000          0x0 build/default/production/mcc_generated_files/motorBench/math_asm.o
 .text              0x0000          0x0 build/default/production/mcc_generated_files/motorBench/sat_PI.o
 .data              0x0000          0x0 build/default/production/mcc_generated_files/motorBench/sat_PI.o
 .bss               0x0000          0x0 build/default/production/mcc_generated_files/motorBench/sat_PI.o
 .text              0x0000          0x0 build/default/production/mcc_generated_files/motorBench/parameters/init_params.o
 .data              0x0000          0x0 build/default/production/mcc_generated_files/motorBench/parameters/init_params.o
 .bss               0x0000          0x0 build/default/production/mcc_generated_files/motorBench/parameters/init_params.o
 .text              0x0000          0x0 build/default/production/mcc_generated_files/motorBench/recover.o
 .data              0x0000          0x0 build/default/production/mcc_generated_files/motorBench/recover.o
 .bss               0x0000          0x0 build/default/production/mcc_generated_files/motorBench/recover.o
 .text              0x0000          0x0 build/default/production/mcc_generated_files/motorBench/state_machine.o
 .data              0x0000          0x0 build/default/production/mcc_generated_files/motorBench/state_machine.o
 .bss               0x0000          0x0 build/default/production/mcc_generated_files/motorBench/state_machine.o
 .text              0x0000          0x0 build/default/production/mcc_generated_files/motorBench/hal/hardware_access_functions.o
 .data              0x0000          0x0 build/default/production/mcc_generated_files/motorBench/hal/hardware_access_functions.o
 .text              0x0000          0x0 build/default/production/mcc_generated_files/motorBench/adc_compensation.o
 .data              0x0000          0x0 build/default/production/mcc_generated_files/motorBench/adc_compensation.o
 .bss               0x0000          0x0 build/default/production/mcc_generated_files/motorBench/adc_compensation.o
 .text              0x0000          0x0 build/default/production/mcc_generated_files/motorBench/commutation.o
 .data              0x0000          0x0 build/default/production/mcc_generated_files/motorBench/commutation.o
 .bss               0x0000          0x0 build/default/production/mcc_generated_files/motorBench/commutation.o
 .text              0x0000          0x0 mcc_generated_files\motorBench\library\mc-library\libmotor_control_dspic-elf.a(mc_sinetable_ram_dspic.33E.o)
 .data              0x0000          0x0 mcc_generated_files\motorBench\library\mc-library\libmotor_control_dspic-elf.a(mc_sinetable_ram_dspic.33E.o)
 .bss               0x0000          0x0 mcc_generated_files\motorBench\library\mc-library\libmotor_control_dspic-elf.a(mc_sinetable_ram_dspic.33E.o)
 .data              0x0000          0x0 mcc_generated_files\motorBench\library\x2cscope\libx2cscope-dspic-elf.a(generic-16bit-epX2CScopeWrapper.o)
 .bss               0x0000          0x0 mcc_generated_files\motorBench\library\x2cscope\libx2cscope-dspic-elf.a(generic-16bit-epX2CScopeWrapper.o)
 .data              0x0000          0x0 mcc_generated_files\motorBench\library\x2cscope\libx2cscope-dspic-elf.a(generic-16dsp-epBlockServicesX2C.o)
 .bss               0x0000          0x0 mcc_generated_files\motorBench\library\x2cscope\libx2cscope-dspic-elf.a(generic-16dsp-epBlockServicesX2C.o)
 .data              0x0000          0x0 mcc_generated_files\motorBench\library\x2cscope\libx2cscope-dspic-elf.a(generic-16dsp-epLNet.o)
 .bss               0x0000          0x0 mcc_generated_files\motorBench\library\x2cscope\libx2cscope-dspic-elf.a(generic-16dsp-epLNet.o)
 .data              0x0000          0x0 mcc_generated_files\motorBench\library\x2cscope\libx2cscope-dspic-elf.a(generic-16dsp-epSerialGeneric.o)
 .bss               0x0000          0x0 mcc_generated_files\motorBench\library\x2cscope\libx2cscope-dspic-elf.a(generic-16dsp-epSerialGeneric.o)
 .data              0x0000          0x0 mcc_generated_files\motorBench\library\x2cscope\libx2cscope-dspic-elf.a(generic-16dsp-epServices.o)
 .bss               0x0000          0x0 mcc_generated_files\motorBench\library\x2cscope\libx2cscope-dspic-elf.a(generic-16dsp-epServices.o)
 .data              0x0000          0x0 mcc_generated_files\motorBench\library\x2cscope\libx2cscope-dspic-elf.a(generic-16dsp-epTableStruct.o)
 .bss               0x0000          0x0 mcc_generated_files\motorBench\library\x2cscope\libx2cscope-dspic-elf.a(generic-16dsp-epTableStruct.o)
 .data              0x0000          0x0 mcc_generated_files\motorBench\library\x2cscope\libx2cscope-dspic-elf.a(generic-16dsp-epVersionInfo.o)
 .bss               0x0000          0x0 mcc_generated_files\motorBench\library\x2cscope\libx2cscope-dspic-elf.a(generic-16dsp-epVersionInfo.o)
 .data              0x0000          0x0 mcc_generated_files\motorBench\library\x2cscope\libx2cscope-dspic-elf.a(generic-16dsp-epX2C.o)
 .bss               0x0000          0x0 mcc_generated_files\motorBench\library\x2cscope\libx2cscope-dspic-elf.a(generic-16dsp-epX2C.o)
 .data              0x0000          0x0 mcc_generated_files\motorBench\library\x2cscope\libx2cscope-dspic-elf.a(generic-16bit-epScope_Main.o)
 .bss               0x0000          0x0 mcc_generated_files\motorBench\library\x2cscope\libx2cscope-dspic-elf.a(generic-16bit-epScope_Main.o)
 .data              0x0000          0x0 mcc_generated_files\motorBench\library\x2cscope\libx2cscope-dspic-elf.a(generic-16dsp-epCommonFcts.o)
 .bss               0x0000          0x0 mcc_generated_files\motorBench\library\x2cscope\libx2cscope-dspic-elf.a(generic-16dsp-epCommonFcts.o)
 .text              0x0000          0x0 c:/program files/microchip/xc-dsc/v3.21/bin/bin/../../lib\libc99-pic30-elf.a(crt_start_mode_normal.EPMeo)
 .data              0x0000          0x0 c:/program files/microchip/xc-dsc/v3.21/bin/bin/../../lib\libc99-pic30-elf.a(crt_start_mode_normal.EPMeo)
 .bss               0x0000          0x0 c:/program files/microchip/xc-dsc/v3.21/bin/bin/../../lib\libc99-pic30-elf.a(crt_start_mode_normal.EPMeo)
 .text              0x0000          0x0 c:/program files/microchip/xc-dsc/v3.21/bin/bin/../../lib\libc99-pic30-elf.a(delay32.EPMeo)
 .data              0x0000          0x0 c:/program files/microchip/xc-dsc/v3.21/bin/bin/../../lib\libc99-pic30-elf.a(delay32.EPMeo)
 .bss               0x0000          0x0 c:/program files/microchip/xc-dsc/v3.21/bin/bin/../../lib\libc99-pic30-elf.a(delay32.EPMeo)
 .text              0x0000          0x0 c:/program files/microchip/xc-dsc/v3.21/bin/bin/../../lib\libc99-pic30-elf.a(crt0_extendedep.o)
 .data              0x0000          0x0 c:/program files/microchip/xc-dsc/v3.21/bin/bin/../../lib\libc99-pic30-elf.a(crt0_extendedep.o)
 .bss               0x0000          0x0 c:/program files/microchip/xc-dsc/v3.21/bin/bin/../../lib\libc99-pic30-elf.a(crt0_extendedep.o)
 .text              0x0000          0x0 c:/program files/microchip/xc-dsc/v3.21/bin/bin/../../lib\libc99-pic30-elf.a(data_init_extended.o)
 .data              0x0000          0x0 c:/program files/microchip/xc-dsc/v3.21/bin/bin/../../lib\libc99-pic30-elf.a(data_init_extended.o)
 .bss               0x0000          0x0 c:/program files/microchip/xc-dsc/v3.21/bin/bin/../../lib\libc99-pic30-elf.a(data_init_extended.o)
 .text              0x0000          0x0 c:/program files/microchip/xc-dsc/v3.21/bin/bin/../../lib\libc99-pic30-elf.a(deqltle.EP_o)
 .data              0x0000          0x0 c:/program files/microchip/xc-dsc/v3.21/bin/bin/../../lib\libc99-pic30-elf.a(deqltle.EP_o)
 .bss               0x0000          0x0 c:/program files/microchip/xc-dsc/v3.21/bin/bin/../../lib\libc99-pic30-elf.a(deqltle.EP_o)
 .text              0x0000          0x0 c:/program files/microchip/xc-dsc/v3.21/bin/bin/../../lib\libc99-pic30-elf.a(dgtge.EP_o)
 .data              0x0000          0x0 c:/program files/microchip/xc-dsc/v3.21/bin/bin/../../lib\libc99-pic30-elf.a(dgtge.EP_o)
 .bss               0x0000          0x0 c:/program files/microchip/xc-dsc/v3.21/bin/bin/../../lib\libc99-pic30-elf.a(dgtge.EP_o)
 .text              0x0000          0x0 c:/program files/microchip/xc-dsc/v3.21/bin/bin/../../lib\libc99-pic30-elf.a(feqltle.EP_o)
 .data              0x0000          0x0 c:/program files/microchip/xc-dsc/v3.21/bin/bin/../../lib\libc99-pic30-elf.a(feqltle.EP_o)
 .bss               0x0000          0x0 c:/program files/microchip/xc-dsc/v3.21/bin/bin/../../lib\libc99-pic30-elf.a(feqltle.EP_o)
 .text              0x0000          0x0 c:/program files/microchip/xc-dsc/v3.21/bin/bin/../../lib\libc99-pic30-elf.a(fgtge.EP_o)
 .data              0x0000          0x0 c:/program files/microchip/xc-dsc/v3.21/bin/bin/../../lib\libc99-pic30-elf.a(fgtge.EP_o)
 .bss               0x0000          0x0 c:/program files/microchip/xc-dsc/v3.21/bin/bin/../../lib\libc99-pic30-elf.a(fgtge.EP_o)
 .text              0x0000          0x0 c:/program files/microchip/xc-dsc/v3.21/bin/bin/../../lib\libc99-pic30-elf.a(dcompare.EP_o)
 .data              0x0000          0x0 c:/program files/microchip/xc-dsc/v3.21/bin/bin/../../lib\libc99-pic30-elf.a(dcompare.EP_o)
 .bss               0x0000          0x0 c:/program files/microchip/xc-dsc/v3.21/bin/bin/../../lib\libc99-pic30-elf.a(dcompare.EP_o)
 .text              0x0000          0x0 c:/program files/microchip/xc-dsc/v3.21/bin/bin/../../lib\libc99-pic30-elf.a(dtype.EP_o)
 .data              0x0000          0x0 c:/program files/microchip/xc-dsc/v3.21/bin/bin/../../lib\libc99-pic30-elf.a(dtype.EP_o)
 .bss               0x0000          0x0 c:/program files/microchip/xc-dsc/v3.21/bin/bin/../../lib\libc99-pic30-elf.a(dtype.EP_o)
 .text              0x0000          0x0 c:/program files/microchip/xc-dsc/v3.21/bin/bin/../../lib\libc99-pic30-elf.a(fcompare.EP_o)
 .data              0x0000          0x0 c:/program files/microchip/xc-dsc/v3.21/bin/bin/../../lib\libc99-pic30-elf.a(fcompare.EP_o)
 .bss               0x0000          0x0 c:/program files/microchip/xc-dsc/v3.21/bin/bin/../../lib\libc99-pic30-elf.a(fcompare.EP_o)
 .text              0x0000          0x0 c:/program files/microchip/xc-dsc/v3.21/bin/bin/../../lib\libc99-pic30-elf.a(funpack2.EP_o)
 .data              0x0000          0x0 c:/program files/microchip/xc-dsc/v3.21/bin/bin/../../lib\libc99-pic30-elf.a(funpack2.EP_o)
 .bss               0x0000          0x0 c:/program files/microchip/xc-dsc/v3.21/bin/bin/../../lib\libc99-pic30-elf.a(funpack2.EP_o)
 .text              0x0000          0x0 c:/program files/microchip/xc-dsc/v3.21/bin/bin/../../lib\libc99-pic30-elf.a(funpack.EP_o)
 .data              0x0000          0x0 c:/program files/microchip/xc-dsc/v3.21/bin/bin/../../lib\libc99-pic30-elf.a(funpack.EP_o)
 .bss               0x0000          0x0 c:/program files/microchip/xc-dsc/v3.21/bin/bin/../../lib\libc99-pic30-elf.a(funpack.EP_o)

Memory Configuration

Name             Origin             Length             Attributes
data             0x001000           0x008000           a !xr
reset            0x000000           0x000004  
ivt              0x000004           0x0001fc  
program          0x000200           0x02adec           xr
FICD             0x02aff0           0x000002  
FPOR             0x02aff2           0x000002  
FWDT             0x02aff4           0x000002  
FOSC             0x02aff6           0x000002  
FOSCSEL          0x02aff8           0x000002  
FGS              0x02affa           0x000002  
FUID0            0x800ff8           0x000002  
FUID1            0x800ffa           0x000002  
FUID2            0x800ffc           0x000002  
FUID3            0x800ffe           0x000002  
*default*        0x000000           0xffffffff  

Linker script and memory map

LOAD build/default/production/mcc_generated_files/tmr1.o
LOAD build/default/production/mcc_generated_files/uart1.o
LOAD build/default/production/mcc_generated_files/tmr2.o
LOAD build/default/production/mcc_generated_files/reset.o
LOAD build/default/production/mcc_generated_files/system.o
LOAD build/default/production/mcc_generated_files/adc1.o
LOAD build/default/production/mcc_generated_files/clock.o
LOAD build/default/production/mcc_generated_files/interrupt_manager.o
LOAD build/default/production/mcc_generated_files/pwm.o
LOAD build/default/production/mcc_generated_files/where_was_i.o
LOAD build/default/production/mcc_generated_files/traps.o
LOAD build/default/production/mcc_generated_files/mcc.o
LOAD build/default/production/mcc_generated_files/pin_manager.o
LOAD build/default/production/main.o
LOAD build/default/production/mcc_generated_files/motorBench/test_harness.o
LOAD build/default/production/mcc_generated_files/motorBench/stall_detect.o
LOAD build/default/production/mcc_generated_files/motorBench/metadata/data_model_snapshot.o
LOAD build/default/production/mcc_generated_files/motorBench/mcaf_main.o
LOAD build/default/production/mcc_generated_files/motorBench/test_harness_timestamps.o
LOAD build/default/production/mcc_generated_files/motorBench/startup.o
LOAD build/default/production/mcc_generated_files/motorBench/hal/mcaf_pin_manager.o
LOAD build/default/production/mcc_generated_files/motorBench/fault_handle.o
LOAD build/default/production/mcc_generated_files/motorBench/mcaf_sample_application.o
LOAD build/default/production/mcc_generated_files/motorBench/ui.o
LOAD build/default/production/mcc_generated_files/motorBench/monitor.o
LOAD build/default/production/mcc_generated_files/motorBench/hal/qei1.o
LOAD build/default/production/mcc_generated_files/motorBench/isr.o
LOAD build/default/production/mcc_generated_files/motorBench/system_state.o
LOAD build/default/production/mcc_generated_files/motorBench/current_measure.o
LOAD build/default/production/mcc_generated_files/motorBench/board_service.o
LOAD build/default/production/mcc_generated_files/motorBench/foc.o
LOAD build/default/production/mcc_generated_files/motorBench/mcapi.o
LOAD build/default/production/mcc_generated_files/motorBench/gate_drive.o
LOAD build/default/production/mcc_generated_files/motorBench/fault_detect.o
LOAD build/default/production/mcc_generated_files/motorBench/commutation/pll.o
LOAD build/default/production/mcc_generated_files/motorBench/mcaf_traps.o
LOAD build/default/production/mcc_generated_files/motorBench/diagnostics.o
LOAD build/default/production/mcc_generated_files/motorBench/system_init.o
LOAD build/default/production/mcc_generated_files/motorBench/math_asm.o
LOAD build/default/production/mcc_generated_files/motorBench/sat_PI.o
LOAD build/default/production/mcc_generated_files/motorBench/parameters/init_params.o
LOAD build/default/production/mcc_generated_files/motorBench/recover.o
LOAD build/default/production/mcc_generated_files/motorBench/state_machine.o
LOAD build/default/production/mcc_generated_files/motorBench/hal/hardware_access_functions.o
LOAD build/default/production/mcc_generated_files/motorBench/adc_compensation.o
LOAD build/default/production/mcc_generated_files/motorBench/commutation.o
LOAD mcc_generated_files\motorBench\library\mc-library\libmotor_control_dspic-elf.a
LOAD mcc_generated_files\motorBench\library\x2cscope\libx2cscope-dspic-elf.a
                    0x0001                  __MPLAB_BUILD = 0x1
LOAD p33EP256MC506
LOAD c:/program files/microchip/xc-dsc/v3.21/bin/bin/../../lib\libfx-elf.a
                    0x2aff0                  __FICD = 0x2aff0
                    0x2aff2                  __FPOR = 0x2aff2
                    0x2aff4                  __FWDT = 0x2aff4
                    0x2aff6                  __FOSC = 0x2aff6
                    0x2aff8                  __FOSCSEL = 0x2aff8
                    0x2affa                  __FGS = 0x2affa
                    0x800ff8                  __FUID0 = 0x800ff8
                    0x800ffa                  __FUID1 = 0x800ffa
                    0x800ffc                  __FUID2 = 0x800ffc
                    0x800ffe                  __FUID3 = 0x800ffe
                    0x0200                  __CODE_BASE = 0x200
                    0x2adec                  __CODE_LENGTH = 0x2adec
                    0x0004                  __IVT_BASE = 0x4
                    0x1000                  __DATA_BASE = 0x1000
                    0x8000                  __DATA_LENGTH = 0x8000
                    0x5000                  __YDATA_BASE = 0x5000
                    0x9000                  __YDATA_END = 0x9000

.reset            0x000000          0x4
                  0x000000          0x1 SHORT 0x200 ABSOLUTE (__reset)
                  0x000001          0x1 SHORT 0x4
                  0x000002          0x1 SHORT 0x0 ((ABSOLUTE (__reset) >> 0x10) & 0x7f)
                  0x000003          0x1 SHORT 0x0

.text             0x000200        0x618
 *(.init)
 .init            0x000200         0x48 c:/program files/microchip/xc-dsc/v3.21/bin/bin/../../lib\libc99-pic30-elf.a(crt0_extendedep.o)
                  0x000200                  __resetPRI
                  0x000200                  __reset
                  0x00023c                  __psv_init
 .init            0x000248         0xb2 c:/program files/microchip/xc-dsc/v3.21/bin/bin/../../lib\libc99-pic30-elf.a(data_init_extended.o)
                  0x000248                  __data_init
                  0x000248                  __data_init_extended
 *(.user_init)
 *(.handle)
 .handle          0x0002fa         0x88 jump_table
 *(.isr*)
 .isr.text._T2Interrupt
                  0x000382         0x2c build/default/production/mcc_generated_files/tmr2.o
                  0x000382                  __T2Interrupt
 .isr.text._AD1Interrupt
                  0x0003ae         0x34 build/default/production/mcc_generated_files/adc1.o
 .isr.text._PWMSpEventMatchInterrupt
                  0x0003e2         0x20 build/default/production/mcc_generated_files/pwm.o
                  0x0003e2                  __PWMSpEventMatchInterrupt
 .isr.text._OscillatorFail
                  0x000402         0x1c build/default/production/mcc_generated_files/traps.o
                  0x000402                  __OscillatorFail
 .isr.text._StackError
                  0x00041e         0x24 build/default/production/mcc_generated_files/traps.o
                  0x00041e                  __StackError
 .isr.text._AddressError
                  0x000442         0x1c build/default/production/mcc_generated_files/traps.o
                  0x000442                  __AddressError
 .isr.text._MathError
                  0x00045e         0x1c build/default/production/mcc_generated_files/traps.o
                  0x00045e                  __MathError
 .isr.text._DMACError
                  0x00047a         0x1c build/default/production/mcc_generated_files/traps.o
                  0x00047a                  __DMACError
 .isr.text._HardTrapError
                  0x000496         0x1c build/default/production/mcc_generated_files/traps.o
                  0x000496                  __HardTrapError
 .isr.text._SoftTrapError
                  0x0004b2         0x24 build/default/production/mcc_generated_files/traps.o
                  0x0004b2                  __SoftTrapError
 .isr.text._AD1Interrupt
                  0x0004d6        0x212 build/default/production/mcc_generated_files/motorBench/isr.o
                  0x0004d6                  __AD1Interrupt
 .isrerror_handler
                  0x0006e8         0x10 build/default/production/mcc_generated_files/motorBench/mcaf_traps.o
                  0x0006e8                  __ReservedTrap7
                  0x0006ee                  __DefaultInterrupt
 *(.libc)
 .libc            0x0006f8         0x1c c:/program files/microchip/xc-dsc/v3.21/bin/bin/../../lib\libc99-pic30-elf.a(delay32.EPMeo)
                  0x0006f8                  ___delay32
 *(.libm)
 *(.libdsp)
 *(.lib*)
 .libpic30_crt_start_mode
                  0x000714          0x2 c:/program files/microchip/xc-dsc/v3.21/bin/bin/../../lib\libc99-pic30-elf.a(crt_start_mode_normal.EPMeo)
                  0x000714                  __crt_start_mode
                  0x000714                  __crt_start_mode_normal
 .libm.eqdf2      0x000716          0xa c:/program files/microchip/xc-dsc/v3.21/bin/bin/../../lib\libc99-pic30-elf.a(deqltle.EP_o)
                  0x000716                  ___eqdf2
                  0x000716                  ___ltdf2
                  0x000716                  ___ledf2
 .libm.gtdf2      0x000720          0xa c:/program files/microchip/xc-dsc/v3.21/bin/bin/../../lib\libc99-pic30-elf.a(dgtge.EP_o)
                  0x000720                  ___gtdf2
                  0x000720                  ___gedf2
 .libm.eqsf2      0x00072a          0x4 c:/program files/microchip/xc-dsc/v3.21/bin/bin/../../lib\libc99-pic30-elf.a(feqltle.EP_o)
                  0x00072a                  ___eqsf2
                  0x00072a                  ___ltsf2
                  0x00072a                  ___lesf2
 .libm.gtsf2      0x00072e          0x4 c:/program files/microchip/xc-dsc/v3.21/bin/bin/../../lib\libc99-pic30-elf.a(fgtge.EP_o)
                  0x00072e                  ___gesf2
                  0x00072e                  ___gtsf2
 .libm.dcompare
                  0x000732         0x52 c:/program files/microchip/xc-dsc/v3.21/bin/bin/../../lib\libc99-pic30-elf.a(dcompare.EP_o)
                  0x000732                  __dcompare
 .libm.dtype      0x000784         0x24 c:/program files/microchip/xc-dsc/v3.21/bin/bin/../../lib\libc99-pic30-elf.a(dtype.EP_o)
                  0x000784                  __dtype
 .libm.fcompare
                  0x0007a8         0x36 c:/program files/microchip/xc-dsc/v3.21/bin/bin/../../lib\libc99-pic30-elf.a(fcompare.EP_o)
                  0x0007a8                  __fcompare
 .libm.funpack2
                  0x0007de         0x10 c:/program files/microchip/xc-dsc/v3.21/bin/bin/../../lib\libc99-pic30-elf.a(funpack2.EP_o)
                  0x0007de                  __funpack2
 .libm.funpack    0x0007ee         0x2a c:/program files/microchip/xc-dsc/v3.21/bin/bin/../../lib\libc99-pic30-elf.a(funpack.EP_o)
                  0x0007ee                  __funpack

usercode
 *(usercode)

__FICD
 *(__FICD.sec*)

__FPOR
 *(__FPOR.sec*)

__FWDT
 *(__FWDT.sec*)

__FOSC
 *(__FOSC.sec*)

__FOSCSEL
 *(__FOSCSEL.sec*)

__FGS             0x02affa          0x2
 *(__FGS.sec*)
 __FGS.sec        0x02affa          0x2 /CW/_FGS
                  0x02affa                  __FGS.sec

__FUID0
 *(__FUID0.sec*)

__FUID1
 *(__FUID1.sec*)

__FUID2
 *(__FUID2.sec*)

__FUID3
 *(__FUID3.sec*)

.comment            0x0000       0x1080
 *(.comment)
 .comment           0x0000         0x58 build/default/production/mcc_generated_files/tmr1.o
 .comment           0x0058         0x58 build/default/production/mcc_generated_files/uart1.o
 .comment           0x00b0         0x58 build/default/production/mcc_generated_files/tmr2.o
 .comment           0x0108         0x58 build/default/production/mcc_generated_files/system.o
 .comment           0x0160         0x58 build/default/production/mcc_generated_files/adc1.o
 .comment           0x01b8         0x58 build/default/production/mcc_generated_files/clock.o
 .comment           0x0210         0x58 build/default/production/mcc_generated_files/interrupt_manager.o
 .comment           0x0268         0x58 build/default/production/mcc_generated_files/pwm.o
 .comment           0x02c0         0x58 build/default/production/mcc_generated_files/traps.o
 .comment           0x0318         0x58 build/default/production/mcc_generated_files/pin_manager.o
 .comment           0x0370         0x58 build/default/production/main.o
 .comment           0x03c8         0x58 build/default/production/mcc_generated_files/motorBench/test_harness.o
 .comment           0x0420         0x58 build/default/production/mcc_generated_files/motorBench/stall_detect.o
 .comment           0x0478         0x58 build/default/production/mcc_generated_files/motorBench/mcaf_main.o
 .comment           0x04d0         0x58 build/default/production/mcc_generated_files/motorBench/startup.o
 .comment           0x0528         0x58 build/default/production/mcc_generated_files/motorBench/hal/mcaf_pin_manager.o
 .comment           0x0580         0x58 build/default/production/mcc_generated_files/motorBench/fault_handle.o
 .comment           0x05d8         0x58 build/default/production/mcc_generated_files/motorBench/mcaf_sample_application.o
 .comment           0x0630         0x58 build/default/production/mcc_generated_files/motorBench/ui.o
 .comment           0x0688         0x58 build/default/production/mcc_generated_files/motorBench/monitor.o
 .comment           0x06e0         0x58 build/default/production/mcc_generated_files/motorBench/isr.o
 .comment           0x0738         0x58 build/default/production/mcc_generated_files/motorBench/system_state.o
 .comment           0x0790         0x58 build/default/production/mcc_generated_files/motorBench/current_measure.o
 .comment           0x07e8         0x58 build/default/production/mcc_generated_files/motorBench/board_service.o
 .comment           0x0840         0x58 build/default/production/mcc_generated_files/motorBench/foc.o
 .comment           0x0898         0x58 build/default/production/mcc_generated_files/motorBench/gate_drive.o
 .comment           0x08f0         0x58 build/default/production/mcc_generated_files/motorBench/fault_detect.o
 .comment           0x0948         0x58 build/default/production/mcc_generated_files/motorBench/commutation/pll.o
 .comment           0x09a0         0x58 build/default/production/mcc_generated_files/motorBench/mcaf_traps.o
 .comment           0x09f8         0x58 build/default/production/mcc_generated_files/motorBench/diagnostics.o
 .comment           0x0a50         0x58 build/default/production/mcc_generated_files/motorBench/system_init.o
 .comment           0x0aa8         0x58 build/default/production/mcc_generated_files/motorBench/sat_PI.o
 .comment           0x0b00         0x58 build/default/production/mcc_generated_files/motorBench/parameters/init_params.o
 .comment           0x0b58         0x58 build/default/production/mcc_generated_files/motorBench/recover.o
 .comment           0x0bb0         0x58 build/default/production/mcc_generated_files/motorBench/state_machine.o
 .comment           0x0c08         0x58 build/default/production/mcc_generated_files/motorBench/hal/hardware_access_functions.o
 .comment           0x0c60         0x58 build/default/production/mcc_generated_files/motorBench/adc_compensation.o
 .comment           0x0cb8         0x58 build/default/production/mcc_generated_files/motorBench/commutation.o
 .comment           0x0d10         0x58 mcc_generated_files\motorBench\library\x2cscope\libx2cscope-dspic-elf.a(generic-16bit-epX2CScopeWrapper.o)
 .comment           0x0d68         0x58 mcc_generated_files\motorBench\library\x2cscope\libx2cscope-dspic-elf.a(generic-16dsp-epBlockServicesX2C.o)
 .comment           0x0dc0         0x58 mcc_generated_files\motorBench\library\x2cscope\libx2cscope-dspic-elf.a(generic-16dsp-epLNet.o)
 .comment           0x0e18         0x58 mcc_generated_files\motorBench\library\x2cscope\libx2cscope-dspic-elf.a(generic-16dsp-epSerialGeneric.o)
 .comment           0x0e70         0x58 mcc_generated_files\motorBench\library\x2cscope\libx2cscope-dspic-elf.a(generic-16dsp-epServices.o)
 .comment           0x0ec8         0x58 mcc_generated_files\motorBench\library\x2cscope\libx2cscope-dspic-elf.a(generic-16dsp-epTableStruct.o)
 .comment           0x0f20         0x58 mcc_generated_files\motorBench\library\x2cscope\libx2cscope-dspic-elf.a(generic-16dsp-epVersionInfo.o)
 .comment           0x0f78         0x58 mcc_generated_files\motorBench\library\x2cscope\libx2cscope-dspic-elf.a(generic-16dsp-epX2C.o)
 .comment           0x0fd0         0x58 mcc_generated_files\motorBench\library\x2cscope\libx2cscope-dspic-elf.a(generic-16bit-epScope_Main.o)
 .comment           0x1028         0x58 mcc_generated_files\motorBench\library\x2cscope\libx2cscope-dspic-elf.a(generic-16dsp-epCommonFcts.o)

.debug_info         0x0000      0x4e6d6
 *(.debug_info)
 .debug_info        0x0000        0x7b3 build/default/production/mcc_generated_files/tmr1.o
 .debug_info        0x07b3        0x7d9 build/default/production/mcc_generated_files/uart1.o
 .debug_info        0x0f8c        0x9d1 build/default/production/mcc_generated_files/tmr2.o
 .debug_info        0x195d        0x52a build/default/production/mcc_generated_files/system.o
 .debug_info        0x1e87        0x6db build/default/production/mcc_generated_files/adc1.o
 .debug_info        0x2562        0x4b6 build/default/production/mcc_generated_files/clock.o
 .debug_info        0x2a18        0x742 build/default/production/mcc_generated_files/interrupt_manager.o
 .debug_info        0x315a        0x982 build/default/production/mcc_generated_files/pwm.o
 .debug_info        0x3adc        0x7bc build/default/production/mcc_generated_files/traps.o
 .debug_info        0x4298        0xaf3 build/default/production/mcc_generated_files/pin_manager.o
 .debug_info        0x4d8b        0x28b build/default/production/main.o
 .debug_info        0x5016        0xb16 build/default/production/mcc_generated_files/motorBench/test_harness.o
 .debug_info        0x5b2c       0x60ad build/default/production/mcc_generated_files/motorBench/stall_detect.o
 .debug_info        0xbbd9       0x4542 build/default/production/mcc_generated_files/motorBench/mcaf_main.o
 .debug_info        0x1011b       0x156b build/default/production/mcc_generated_files/motorBench/startup.o
 .debug_info        0x11686        0x986 build/default/production/mcc_generated_files/motorBench/hal/mcaf_pin_manager.o
 .debug_info        0x1200c        0x394 build/default/production/mcc_generated_files/motorBench/fault_handle.o
 .debug_info        0x123a0       0x11dd build/default/production/mcc_generated_files/motorBench/mcaf_sample_application.o
 .debug_info        0x1357d        0xfa1 build/default/production/mcc_generated_files/motorBench/ui.o
 .debug_info        0x1451e       0x4305 build/default/production/mcc_generated_files/motorBench/monitor.o
 .debug_info        0x18823       0x5812 build/default/production/mcc_generated_files/motorBench/isr.o
 .debug_info        0x1e035       0x3ad9 build/default/production/mcc_generated_files/motorBench/system_state.o
 .debug_info        0x21b0e       0x448d build/default/production/mcc_generated_files/motorBench/current_measure.o
 .debug_info        0x25f9b        0x8d4 build/default/production/mcc_generated_files/motorBench/board_service.o
 .debug_info        0x2686f       0x6c1d build/default/production/mcc_generated_files/motorBench/foc.o
 .debug_info        0x2d48c        0xade build/default/production/mcc_generated_files/motorBench/gate_drive.o
 .debug_info        0x2df6a       0x4636 build/default/production/mcc_generated_files/motorBench/fault_detect.o
 .debug_info        0x325a0       0x175a build/default/production/mcc_generated_files/motorBench/commutation/pll.o
 .debug_info        0x33cfa        0x9e0 build/default/production/mcc_generated_files/motorBench/mcaf_traps.o
 .debug_info        0x346da        0x6c9 build/default/production/mcc_generated_files/motorBench/diagnostics.o
 .debug_info        0x34da3       0x1b0b build/default/production/mcc_generated_files/motorBench/system_init.o
 .debug_info        0x368ae         0x26 build/default/production/mcc_generated_files/motorBench/math_asm.o
 .debug_info        0x368d4       0x1438 build/default/production/mcc_generated_files/motorBench/sat_PI.o
 .debug_info        0x37d0c       0x3ae1 build/default/production/mcc_generated_files/motorBench/parameters/init_params.o
 .debug_info        0x3b7ed        0x5fb build/default/production/mcc_generated_files/motorBench/recover.o
 .debug_info        0x3bde8       0x92d1 build/default/production/mcc_generated_files/motorBench/state_machine.o
 .debug_info        0x450b9        0x899 build/default/production/mcc_generated_files/motorBench/hal/hardware_access_functions.o
 .debug_info        0x45952       0x44a9 build/default/production/mcc_generated_files/motorBench/adc_compensation.o
 .debug_info        0x49dfb       0x4785 build/default/production/mcc_generated_files/motorBench/commutation.o
 .debug_info        0x4e580         0x26 c:/program files/microchip/xc-dsc/v3.21/bin/bin/../../lib\libc99-pic30-elf.a(deqltle.EP_o)
 .debug_info        0x4e5a6         0x26 c:/program files/microchip/xc-dsc/v3.21/bin/bin/../../lib\libc99-pic30-elf.a(dgtge.EP_o)
 .debug_info        0x4e5cc         0x26 c:/program files/microchip/xc-dsc/v3.21/bin/bin/../../lib\libc99-pic30-elf.a(feqltle.EP_o)
 .debug_info        0x4e5f2         0x26 c:/program files/microchip/xc-dsc/v3.21/bin/bin/../../lib\libc99-pic30-elf.a(fgtge.EP_o)
 .debug_info        0x4e618         0x26 c:/program files/microchip/xc-dsc/v3.21/bin/bin/../../lib\libc99-pic30-elf.a(dcompare.EP_o)
 .debug_info        0x4e63e         0x26 c:/program files/microchip/xc-dsc/v3.21/bin/bin/../../lib\libc99-pic30-elf.a(dtype.EP_o)
 .debug_info        0x4e664         0x26 c:/program files/microchip/xc-dsc/v3.21/bin/bin/../../lib\libc99-pic30-elf.a(fcompare.EP_o)
 .debug_info        0x4e68a         0x26 c:/program files/microchip/xc-dsc/v3.21/bin/bin/../../lib\libc99-pic30-elf.a(funpack2.EP_o)
 .debug_info        0x4e6b0         0x26 c:/program files/microchip/xc-dsc/v3.21/bin/bin/../../lib\libc99-pic30-elf.a(funpack.EP_o)
 *(.gnu.linkonce.wi.*)

.debug_abbrev       0x0000       0x5576
 *(.debug_abbrev)
 .debug_abbrev      0x0000        0x16e build/default/production/mcc_generated_files/tmr1.o
 .debug_abbrev      0x016e        0x112 build/default/production/mcc_generated_files/uart1.o
 .debug_abbrev      0x0280        0x1eb build/default/production/mcc_generated_files/tmr2.o
 .debug_abbrev      0x046b        0x117 build/default/production/mcc_generated_files/system.o
 .debug_abbrev      0x0582        0x13b build/default/production/mcc_generated_files/adc1.o
 .debug_abbrev      0x06bd         0xc9 build/default/production/mcc_generated_files/clock.o
 .debug_abbrev      0x0786         0xc9 build/default/production/mcc_generated_files/interrupt_manager.o
 .debug_abbrev      0x084f        0x144 build/default/production/mcc_generated_files/pwm.o
 .debug_abbrev      0x0993        0x187 build/default/production/mcc_generated_files/traps.o
 .debug_abbrev      0x0b1a         0xd4 build/default/production/mcc_generated_files/pin_manager.o
 .debug_abbrev      0x0bee         0x5e build/default/production/main.o
 .debug_abbrev      0x0c4c        0x172 build/default/production/mcc_generated_files/motorBench/test_harness.o
 .debug_abbrev      0x0dbe        0x406 build/default/production/mcc_generated_files/motorBench/stall_detect.o
 .debug_abbrev      0x11c4        0x37f build/default/production/mcc_generated_files/motorBench/mcaf_main.o
 .debug_abbrev      0x1543        0x31c build/default/production/mcc_generated_files/motorBench/startup.o
 .debug_abbrev      0x185f         0xc9 build/default/production/mcc_generated_files/motorBench/hal/mcaf_pin_manager.o
 .debug_abbrev      0x1928         0xa2 build/default/production/mcc_generated_files/motorBench/fault_handle.o
 .debug_abbrev      0x19ca        0x2db build/default/production/mcc_generated_files/motorBench/mcaf_sample_application.o
 .debug_abbrev      0x1ca5        0x34d build/default/production/mcc_generated_files/motorBench/ui.o
 .debug_abbrev      0x1ff2        0x2ef build/default/production/mcc_generated_files/motorBench/monitor.o
 .debug_abbrev      0x22e1        0x435 build/default/production/mcc_generated_files/motorBench/isr.o
 .debug_abbrev      0x2716        0x177 build/default/production/mcc_generated_files/motorBench/system_state.o
 .debug_abbrev      0x288d        0x316 build/default/production/mcc_generated_files/motorBench/current_measure.o
 .debug_abbrev      0x2ba3        0x1c4 build/default/production/mcc_generated_files/motorBench/board_service.o
 .debug_abbrev      0x2d67        0x4cc build/default/production/mcc_generated_files/motorBench/foc.o
 .debug_abbrev      0x3233        0x22a build/default/production/mcc_generated_files/motorBench/gate_drive.o
 .debug_abbrev      0x345d        0x34b build/default/production/mcc_generated_files/motorBench/fault_detect.o
 .debug_abbrev      0x37a8        0x2ff build/default/production/mcc_generated_files/motorBench/commutation/pll.o
 .debug_abbrev      0x3aa7        0x24e build/default/production/mcc_generated_files/motorBench/mcaf_traps.o
 .debug_abbrev      0x3cf5        0x1d6 build/default/production/mcc_generated_files/motorBench/diagnostics.o
 .debug_abbrev      0x3ecb        0x2f3 build/default/production/mcc_generated_files/motorBench/system_init.o
 .debug_abbrev      0x41be         0x14 build/default/production/mcc_generated_files/motorBench/math_asm.o
 .debug_abbrev      0x41d2        0x369 build/default/production/mcc_generated_files/motorBench/sat_PI.o
 .debug_abbrev      0x453b        0x177 build/default/production/mcc_generated_files/motorBench/parameters/init_params.o
 .debug_abbrev      0x46b2        0x100 build/default/production/mcc_generated_files/motorBench/recover.o
 .debug_abbrev      0x47b2        0x4af build/default/production/mcc_generated_files/motorBench/state_machine.o
 .debug_abbrev      0x4c61        0x233 build/default/production/mcc_generated_files/motorBench/hal/hardware_access_functions.o
 .debug_abbrev      0x4e94        0x31c build/default/production/mcc_generated_files/motorBench/adc_compensation.o
 .debug_abbrev      0x51b0        0x312 build/default/production/mcc_generated_files/motorBench/commutation.o
 .debug_abbrev      0x54c2         0x14 c:/program files/microchip/xc-dsc/v3.21/bin/bin/../../lib\libc99-pic30-elf.a(deqltle.EP_o)
 .debug_abbrev      0x54d6         0x14 c:/program files/microchip/xc-dsc/v3.21/bin/bin/../../lib\libc99-pic30-elf.a(dgtge.EP_o)
 .debug_abbrev      0x54ea         0x14 c:/program files/microchip/xc-dsc/v3.21/bin/bin/../../lib\libc99-pic30-elf.a(feqltle.EP_o)
 .debug_abbrev      0x54fe         0x14 c:/program files/microchip/xc-dsc/v3.21/bin/bin/../../lib\libc99-pic30-elf.a(fgtge.EP_o)
 .debug_abbrev      0x5512         0x14 c:/program files/microchip/xc-dsc/v3.21/bin/bin/../../lib\libc99-pic30-elf.a(dcompare.EP_o)
 .debug_abbrev      0x5526         0x14 c:/program files/microchip/xc-dsc/v3.21/bin/bin/../../lib\libc99-pic30-elf.a(dtype.EP_o)
 .debug_abbrev      0x553a         0x14 c:/program files/microchip/xc-dsc/v3.21/bin/bin/../../lib\libc99-pic30-elf.a(fcompare.EP_o)
 .debug_abbrev      0x554e         0x14 c:/program files/microchip/xc-dsc/v3.21/bin/bin/../../lib\libc99-pic30-elf.a(funpack2.EP_o)
 .debug_abbrev      0x5562         0x14 c:/program files/microchip/xc-dsc/v3.21/bin/bin/../../lib\libc99-pic30-elf.a(funpack.EP_o)

.debug_line         0x0000       0xd68b
 *(.debug_line)
 .debug_line        0x0000        0x29a build/default/production/mcc_generated_files/tmr1.o
 .debug_line        0x029a        0x257 build/default/production/mcc_generated_files/uart1.o
 .debug_line        0x04f1        0x30d build/default/production/mcc_generated_files/tmr2.o
 .debug_line        0x07fe        0x1c3 build/default/production/mcc_generated_files/system.o
 .debug_line        0x09c1        0x1c2 build/default/production/mcc_generated_files/adc1.o
 .debug_line        0x0b83        0x17e build/default/production/mcc_generated_files/clock.o
 .debug_line        0x0d01        0x13d build/default/production/mcc_generated_files/interrupt_manager.o
 .debug_line        0x0e3e        0x360 build/default/production/mcc_generated_files/pwm.o
 .debug_line        0x119e        0x243 build/default/production/mcc_generated_files/traps.o
 .debug_line        0x13e1        0x27d build/default/production/mcc_generated_files/pin_manager.o
 .debug_line        0x165e         0x8e build/default/production/main.o
 .debug_line        0x16ec        0x1ed build/default/production/mcc_generated_files/motorBench/test_harness.o
 .debug_line        0x18d9       0x163d build/default/production/mcc_generated_files/motorBench/stall_detect.o
 .debug_line        0x2f16        0x6b3 build/default/production/mcc_generated_files/motorBench/mcaf_main.o
 .debug_line        0x35c9        0x677 build/default/production/mcc_generated_files/motorBench/startup.o
 .debug_line        0x3c40        0x169 build/default/production/mcc_generated_files/motorBench/hal/mcaf_pin_manager.o
 .debug_line        0x3da9         0xf6 build/default/production/mcc_generated_files/motorBench/fault_handle.o
 .debug_line        0x3e9f        0x405 build/default/production/mcc_generated_files/motorBench/mcaf_sample_application.o
 .debug_line        0x42a4        0x7d5 build/default/production/mcc_generated_files/motorBench/ui.o
 .debug_line        0x4a79        0x492 build/default/production/mcc_generated_files/motorBench/monitor.o
 .debug_line        0x4f0b        0xa62 build/default/production/mcc_generated_files/motorBench/isr.o
 .debug_line        0x596d        0x369 build/default/production/mcc_generated_files/motorBench/system_state.o
 .debug_line        0x5cd6        0x5f8 build/default/production/mcc_generated_files/motorBench/current_measure.o
 .debug_line        0x62ce        0x3f9 build/default/production/mcc_generated_files/motorBench/board_service.o
 .debug_line        0x66c7       0x13f3 build/default/production/mcc_generated_files/motorBench/foc.o
 .debug_line        0x7aba        0x51e build/default/production/mcc_generated_files/motorBench/gate_drive.o
 .debug_line        0x7fd8        0x55b build/default/production/mcc_generated_files/motorBench/fault_detect.o
 .debug_line        0x8533        0x7a1 build/default/production/mcc_generated_files/motorBench/commutation/pll.o
 .debug_line        0x8cd4        0x305 build/default/production/mcc_generated_files/motorBench/mcaf_traps.o
 .debug_line        0x8fd9        0x24c build/default/production/mcc_generated_files/motorBench/diagnostics.o
 .debug_line        0x9225        0x62c build/default/production/mcc_generated_files/motorBench/system_init.o
 .debug_line        0x9851         0xa2 build/default/production/mcc_generated_files/motorBench/math_asm.o
 .debug_line        0x98f3        0x690 build/default/production/mcc_generated_files/motorBench/sat_PI.o
 .debug_line        0x9f83        0x4a4 build/default/production/mcc_generated_files/motorBench/parameters/init_params.o
 .debug_line        0xa427        0x187 build/default/production/mcc_generated_files/motorBench/recover.o
 .debug_line        0xa5ae       0x1f07 build/default/production/mcc_generated_files/motorBench/state_machine.o
 .debug_line        0xc4b5        0x27b build/default/production/mcc_generated_files/motorBench/hal/hardware_access_functions.o
 .debug_line        0xc730        0x5fd build/default/production/mcc_generated_files/motorBench/adc_compensation.o
 .debug_line        0xcd2d        0x6c4 build/default/production/mcc_generated_files/motorBench/commutation.o
 .debug_line        0xd3f1         0x1a mcc_generated_files\motorBench\library\mc-library\libmotor_control_dspic-elf.a(mc_sinetable_ram_dspic.33E.o)
 .debug_line        0xd40b         0x3d c:/program files/microchip/xc-dsc/v3.21/bin/bin/../../lib\libc99-pic30-elf.a(deqltle.EP_o)
 .debug_line        0xd448         0x3b c:/program files/microchip/xc-dsc/v3.21/bin/bin/../../lib\libc99-pic30-elf.a(dgtge.EP_o)
 .debug_line        0xd483         0x3a c:/program files/microchip/xc-dsc/v3.21/bin/bin/../../lib\libc99-pic30-elf.a(feqltle.EP_o)
 .debug_line        0xd4bd         0x38 c:/program files/microchip/xc-dsc/v3.21/bin/bin/../../lib\libc99-pic30-elf.a(fgtge.EP_o)
 .debug_line        0xd4f5         0x66 c:/program files/microchip/xc-dsc/v3.21/bin/bin/../../lib\libc99-pic30-elf.a(dcompare.EP_o)
 .debug_line        0xd55b         0x48 c:/program files/microchip/xc-dsc/v3.21/bin/bin/../../lib\libc99-pic30-elf.a(dtype.EP_o)
 .debug_line        0xd5a3         0x56 c:/program files/microchip/xc-dsc/v3.21/bin/bin/../../lib\libc99-pic30-elf.a(fcompare.EP_o)
 .debug_line        0xd5f9         0x45 c:/program files/microchip/xc-dsc/v3.21/bin/bin/../../lib\libc99-pic30-elf.a(funpack2.EP_o)
 .debug_line        0xd63e         0x4d c:/program files/microchip/xc-dsc/v3.21/bin/bin/../../lib\libc99-pic30-elf.a(funpack.EP_o)

.debug_frame        0x0000        0xf12
 *(.debug_frame)
 .debug_frame       0x0000         0xc4 build/default/production/mcc_generated_files/tmr1.o
 .debug_frame       0x00c4         0xa4 build/default/production/mcc_generated_files/uart1.o
 .debug_frame       0x0168         0xf2 build/default/production/mcc_generated_files/tmr2.o
 .debug_frame       0x025a         0x24 build/default/production/mcc_generated_files/system.o
 .debug_frame       0x027e         0x62 build/default/production/mcc_generated_files/adc1.o
 .debug_frame       0x02e0         0x24 build/default/production/mcc_generated_files/clock.o
 .debug_frame       0x0304         0x24 build/default/production/mcc_generated_files/interrupt_manager.o
 .debug_frame       0x0328         0xc2 build/default/production/mcc_generated_files/pwm.o
 .debug_frame       0x03ea         0xf6 build/default/production/mcc_generated_files/traps.o
 .debug_frame       0x04e0         0x24 build/default/production/mcc_generated_files/pin_manager.o
 .debug_frame       0x0504         0x24 build/default/production/main.o
 .debug_frame       0x0528         0x5e build/default/production/mcc_generated_files/motorBench/test_harness.o
 .debug_frame       0x0586        0x170 build/default/production/mcc_generated_files/motorBench/stall_detect.o
 .debug_frame       0x06f6         0x3c build/default/production/mcc_generated_files/motorBench/mcaf_main.o
 .debug_frame       0x0732         0x3c build/default/production/mcc_generated_files/motorBench/startup.o
 .debug_frame       0x076e         0x24 build/default/production/mcc_generated_files/motorBench/hal/mcaf_pin_manager.o
 .debug_frame       0x0792         0x34 build/default/production/mcc_generated_files/motorBench/fault_handle.o
 .debug_frame       0x07c6         0x4e build/default/production/mcc_generated_files/motorBench/mcaf_sample_application.o
 .debug_frame       0x0814         0x74 build/default/production/mcc_generated_files/motorBench/ui.o
 .debug_frame       0x0888         0x5c build/default/production/mcc_generated_files/motorBench/monitor.o
 .debug_frame       0x08e4         0x32 build/default/production/mcc_generated_files/motorBench/isr.o
 .debug_frame       0x0916         0x24 build/default/production/mcc_generated_files/motorBench/system_state.o
 .debug_frame       0x093a         0x34 build/default/production/mcc_generated_files/motorBench/current_measure.o
 .debug_frame       0x096e         0xb4 build/default/production/mcc_generated_files/motorBench/board_service.o
 .debug_frame       0x0a22         0xb2 build/default/production/mcc_generated_files/motorBench/foc.o
 .debug_frame       0x0ad4         0x34 build/default/production/mcc_generated_files/motorBench/gate_drive.o
 .debug_frame       0x0b08         0x5c build/default/production/mcc_generated_files/motorBench/fault_detect.o
 .debug_frame       0x0b64         0x4e build/default/production/mcc_generated_files/motorBench/commutation/pll.o
 .debug_frame       0x0bb2         0x64 build/default/production/mcc_generated_files/motorBench/mcaf_traps.o
 .debug_frame       0x0c16         0xa6 build/default/production/mcc_generated_files/motorBench/diagnostics.o
 .debug_frame       0x0cbc         0x34 build/default/production/mcc_generated_files/motorBench/system_init.o
 .debug_frame       0x0cf0         0x7e build/default/production/mcc_generated_files/motorBench/sat_PI.o
 .debug_frame       0x0d6e         0x24 build/default/production/mcc_generated_files/motorBench/parameters/init_params.o
 .debug_frame       0x0d92         0x4c build/default/production/mcc_generated_files/motorBench/recover.o
 .debug_frame       0x0dde         0x58 build/default/production/mcc_generated_files/motorBench/state_machine.o
 .debug_frame       0x0e36         0x44 build/default/production/mcc_generated_files/motorBench/hal/hardware_access_functions.o
 .debug_frame       0x0e7a         0x3c build/default/production/mcc_generated_files/motorBench/adc_compensation.o
 .debug_frame       0x0eb6         0x5c build/default/production/mcc_generated_files/motorBench/commutation.o

.debug_str          0x0000       0x1ee1
 *(.debug_str)
 .debug_str         0x0000          0xd build/default/production/mcc_generated_files/tmr1.o
 .debug_str         0x000d          0x0 build/default/production/mcc_generated_files/uart1.o
 .debug_str         0x000d          0xd build/default/production/mcc_generated_files/tmr2.o
 .debug_str         0x001a         0x8d build/default/production/mcc_generated_files/system.o
 .debug_str         0x00a7          0x0 build/default/production/mcc_generated_files/adc1.o
 .debug_str         0x00a7          0x0 build/default/production/mcc_generated_files/clock.o
 .debug_str         0x00a7          0x0 build/default/production/mcc_generated_files/interrupt_manager.o
 .debug_str         0x00a7          0x0 build/default/production/mcc_generated_files/pwm.o
 .debug_str         0x00a7          0xd build/default/production/mcc_generated_files/traps.o
 .debug_str         0x00b4          0xd build/default/production/mcc_generated_files/pin_manager.o
 .debug_str         0x00c1         0x2e build/default/production/main.o
 .debug_str         0x00ef          0xd build/default/production/mcc_generated_files/motorBench/test_harness.o
 .debug_str         0x00fc        0x1c3 build/default/production/mcc_generated_files/motorBench/stall_detect.o
 .debug_str         0x02bf        0x2fb build/default/production/mcc_generated_files/motorBench/mcaf_main.o
 .debug_str         0x05ba         0x7d build/default/production/mcc_generated_files/motorBench/startup.o
 .debug_str         0x0637          0x0 build/default/production/mcc_generated_files/motorBench/hal/mcaf_pin_manager.o
 .debug_str         0x0637          0xd build/default/production/mcc_generated_files/motorBench/fault_handle.o
 .debug_str         0x0644         0xc8 build/default/production/mcc_generated_files/motorBench/mcaf_sample_application.o
 .debug_str         0x070c         0x11 build/default/production/mcc_generated_files/motorBench/ui.o
 .debug_str         0x071d        0x171 build/default/production/mcc_generated_files/motorBench/monitor.o
 .debug_str         0x088e        0x22a build/default/production/mcc_generated_files/motorBench/isr.o
 .debug_str         0x0ab8        0x131 build/default/production/mcc_generated_files/motorBench/system_state.o
 .debug_str         0x0be9        0x142 build/default/production/mcc_generated_files/motorBench/current_measure.o
 .debug_str         0x0d2b         0x13 build/default/production/mcc_generated_files/motorBench/board_service.o
 .debug_str         0x0d3e        0x298 build/default/production/mcc_generated_files/motorBench/foc.o
 .debug_str         0x0fd6         0x1f build/default/production/mcc_generated_files/motorBench/gate_drive.o
 .debug_str         0x0ff5        0x183 build/default/production/mcc_generated_files/motorBench/fault_detect.o
 .debug_str         0x1178         0x43 build/default/production/mcc_generated_files/motorBench/commutation/pll.o
 .debug_str         0x11bb         0x32 build/default/production/mcc_generated_files/motorBench/mcaf_traps.o
 .debug_str         0x11ed         0xa9 build/default/production/mcc_generated_files/motorBench/diagnostics.o
 .debug_str         0x1296         0x54 build/default/production/mcc_generated_files/motorBench/system_init.o
 .debug_str         0x12ea         0x6d build/default/production/mcc_generated_files/motorBench/math_asm.o
 .debug_str         0x1357         0x1e build/default/production/mcc_generated_files/motorBench/sat_PI.o
 .debug_str         0x1375        0x131 build/default/production/mcc_generated_files/motorBench/parameters/init_params.o
 .debug_str         0x14a6          0xa build/default/production/mcc_generated_files/motorBench/recover.o
 .debug_str         0x14b0        0x44a build/default/production/mcc_generated_files/motorBench/state_machine.o
 .debug_str         0x18fa          0x8 build/default/production/mcc_generated_files/motorBench/hal/hardware_access_functions.o
 .debug_str         0x1902        0x151 build/default/production/mcc_generated_files/motorBench/adc_compensation.o
 .debug_str         0x1a53        0x1e5 build/default/production/mcc_generated_files/motorBench/commutation.o
 .debug_str         0x1c38         0x4c c:/program files/microchip/xc-dsc/v3.21/bin/bin/../../lib\libc99-pic30-elf.a(deqltle.EP_o)
 .debug_str         0x1c84         0x4a c:/program files/microchip/xc-dsc/v3.21/bin/bin/../../lib\libc99-pic30-elf.a(dgtge.EP_o)
 .debug_str         0x1cce         0x4c c:/program files/microchip/xc-dsc/v3.21/bin/bin/../../lib\libc99-pic30-elf.a(feqltle.EP_o)
 .debug_str         0x1d1a         0x4a c:/program files/microchip/xc-dsc/v3.21/bin/bin/../../lib\libc99-pic30-elf.a(fgtge.EP_o)
 .debug_str         0x1d64         0x4d c:/program files/microchip/xc-dsc/v3.21/bin/bin/../../lib\libc99-pic30-elf.a(dcompare.EP_o)
 .debug_str         0x1db1         0x4a c:/program files/microchip/xc-dsc/v3.21/bin/bin/../../lib\libc99-pic30-elf.a(dtype.EP_o)
 .debug_str         0x1dfb         0x4d c:/program files/microchip/xc-dsc/v3.21/bin/bin/../../lib\libc99-pic30-elf.a(fcompare.EP_o)
 .debug_str         0x1e48         0x4d c:/program files/microchip/xc-dsc/v3.21/bin/bin/../../lib\libc99-pic30-elf.a(funpack2.EP_o)
 .debug_str         0x1e95         0x4c c:/program files/microchip/xc-dsc/v3.21/bin/bin/../../lib\libc99-pic30-elf.a(funpack.EP_o)

.debug_loc          0x0000       0x9215
 *(.debug_loc)
 .debug_loc         0x0000         0x42 build/default/production/mcc_generated_files/tmr1.o
 .debug_loc         0x0042         0x42 build/default/production/mcc_generated_files/tmr2.o
 .debug_loc         0x0084         0x15 build/default/production/mcc_generated_files/system.o
 .debug_loc         0x0099         0x33 build/default/production/mcc_generated_files/motorBench/test_harness.o
 .debug_loc         0x00cc       0x177d build/default/production/mcc_generated_files/motorBench/stall_detect.o
 .debug_loc         0x1849         0x87 build/default/production/mcc_generated_files/motorBench/mcaf_main.o
 .debug_loc         0x18d0        0xd24 build/default/production/mcc_generated_files/motorBench/startup.o
 .debug_loc         0x25f4        0x29d build/default/production/mcc_generated_files/motorBench/mcaf_sample_application.o
 .debug_loc         0x2891        0x296 build/default/production/mcc_generated_files/motorBench/ui.o
 .debug_loc         0x2b27        0x16c build/default/production/mcc_generated_files/motorBench/monitor.o
 .debug_loc         0x2c93        0x2b1 build/default/production/mcc_generated_files/motorBench/isr.o
 .debug_loc         0x2f44        0x409 build/default/production/mcc_generated_files/motorBench/current_measure.o
 .debug_loc         0x334d        0x11f build/default/production/mcc_generated_files/motorBench/board_service.o
 .debug_loc         0x346c       0x1547 build/default/production/mcc_generated_files/motorBench/foc.o
 .debug_loc         0x49b3        0x24c build/default/production/mcc_generated_files/motorBench/gate_drive.o
 .debug_loc         0x4bff         0xcd build/default/production/mcc_generated_files/motorBench/fault_detect.o
 .debug_loc         0x4ccc        0xa60 build/default/production/mcc_generated_files/motorBench/commutation/pll.o
 .debug_loc         0x572c        0x1ed build/default/production/mcc_generated_files/motorBench/mcaf_traps.o
 .debug_loc         0x5919         0x62 build/default/production/mcc_generated_files/motorBench/diagnostics.o
 .debug_loc         0x597b        0x2ee build/default/production/mcc_generated_files/motorBench/system_init.o
 .debug_loc         0x5c69        0x844 build/default/production/mcc_generated_files/motorBench/sat_PI.o
 .debug_loc         0x64ad        0x101 build/default/production/mcc_generated_files/motorBench/recover.o
 .debug_loc         0x65ae       0x24e1 build/default/production/mcc_generated_files/motorBench/state_machine.o
 .debug_loc         0x8a8f         0x28 build/default/production/mcc_generated_files/motorBench/hal/hardware_access_functions.o
 .debug_loc         0x8ab7        0x1db build/default/production/mcc_generated_files/motorBench/adc_compensation.o
 .debug_loc         0x8c92        0x583 build/default/production/mcc_generated_files/motorBench/commutation.o

.debug_macinfo
 *(.debug_macinfo)

.debug_pubnames
 *(.debug_pubnames)

.debug_ranges       0x0000       0x2fb8
 *(.debug_ranges)
 .debug_ranges      0x0000         0x60 build/default/production/mcc_generated_files/tmr1.o
 .debug_ranges      0x0060         0x50 build/default/production/mcc_generated_files/uart1.o
 .debug_ranges      0x00b0         0x70 build/default/production/mcc_generated_files/tmr2.o
 .debug_ranges      0x0120         0x10 build/default/production/mcc_generated_files/system.o
 .debug_ranges      0x0130         0x28 build/default/production/mcc_generated_files/adc1.o
 .debug_ranges      0x0158         0x10 build/default/production/mcc_generated_files/clock.o
 .debug_ranges      0x0168         0x10 build/default/production/mcc_generated_files/interrupt_manager.o
 .debug_ranges      0x0178         0x58 build/default/production/mcc_generated_files/pwm.o
 .debug_ranges      0x01d0         0x48 build/default/production/mcc_generated_files/traps.o
 .debug_ranges      0x0218         0x10 build/default/production/mcc_generated_files/pin_manager.o
 .debug_ranges      0x0228         0x10 build/default/production/main.o
 .debug_ranges      0x0238         0x28 build/default/production/mcc_generated_files/motorBench/test_harness.o
 .debug_ranges      0x0260        0x988 build/default/production/mcc_generated_files/motorBench/stall_detect.o
 .debug_ranges      0x0be8         0x60 build/default/production/mcc_generated_files/motorBench/mcaf_main.o
 .debug_ranges      0x0c48        0x1a8 build/default/production/mcc_generated_files/motorBench/startup.o
 .debug_ranges      0x0df0         0x10 build/default/production/mcc_generated_files/motorBench/hal/mcaf_pin_manager.o
 .debug_ranges      0x0e00         0x18 build/default/production/mcc_generated_files/motorBench/fault_handle.o
 .debug_ranges      0x0e18         0xc0 build/default/production/mcc_generated_files/motorBench/mcaf_sample_application.o
 .debug_ranges      0x0ed8        0x1a0 build/default/production/mcc_generated_files/motorBench/ui.o
 .debug_ranges      0x1078         0x40 build/default/production/mcc_generated_files/motorBench/monitor.o
 .debug_ranges      0x10b8        0x1b8 build/default/production/mcc_generated_files/motorBench/isr.o
 .debug_ranges      0x1270         0x10 build/default/production/mcc_generated_files/motorBench/system_state.o
 .debug_ranges      0x1280         0x78 build/default/production/mcc_generated_files/motorBench/current_measure.o
 .debug_ranges      0x12f8         0x50 build/default/production/mcc_generated_files/motorBench/board_service.o
 .debug_ranges      0x1348        0x470 build/default/production/mcc_generated_files/motorBench/foc.o
 .debug_ranges      0x17b8         0xc0 build/default/production/mcc_generated_files/motorBench/gate_drive.o
 .debug_ranges      0x1878         0x28 build/default/production/mcc_generated_files/motorBench/fault_detect.o
 .debug_ranges      0x18a0         0xb0 build/default/production/mcc_generated_files/motorBench/commutation/pll.o
 .debug_ranges      0x1950         0x48 build/default/production/mcc_generated_files/motorBench/mcaf_traps.o
 .debug_ranges      0x1998         0x48 build/default/production/mcc_generated_files/motorBench/diagnostics.o
 .debug_ranges      0x19e0        0x140 build/default/production/mcc_generated_files/motorBench/system_init.o
 .debug_ranges      0x1b20        0x210 build/default/production/mcc_generated_files/motorBench/sat_PI.o
 .debug_ranges      0x1d30         0x10 build/default/production/mcc_generated_files/motorBench/parameters/init_params.o
 .debug_ranges      0x1d40         0x20 build/default/production/mcc_generated_files/motorBench/recover.o
 .debug_ranges      0x1d60       0x1090 build/default/production/mcc_generated_files/motorBench/state_machine.o
 .debug_ranges      0x2df0         0x20 build/default/production/mcc_generated_files/motorBench/hal/hardware_access_functions.o
 .debug_ranges      0x2e10         0x88 build/default/production/mcc_generated_files/motorBench/adc_compensation.o
 .debug_ranges      0x2e98        0x120 build/default/production/mcc_generated_files/motorBench/commutation.o

.debug_aranges      0x0000        0xa10
 *(.debug_aranges)
 .debug_aranges
                    0x0000         0x70 build/default/production/mcc_generated_files/tmr1.o
 .debug_aranges
                    0x0070         0x60 build/default/production/mcc_generated_files/uart1.o
 .debug_aranges
                    0x00d0         0x80 build/default/production/mcc_generated_files/tmr2.o
 .debug_aranges
                    0x0150         0x20 build/default/production/mcc_generated_files/system.o
 .debug_aranges
                    0x0170         0x38 build/default/production/mcc_generated_files/adc1.o
 .debug_aranges
                    0x01a8         0x20 build/default/production/mcc_generated_files/clock.o
 .debug_aranges
                    0x01c8         0x20 build/default/production/mcc_generated_files/interrupt_manager.o
 .debug_aranges
                    0x01e8         0x68 build/default/production/mcc_generated_files/pwm.o
 .debug_aranges
                    0x0250         0x58 build/default/production/mcc_generated_files/traps.o
 .debug_aranges
                    0x02a8         0x20 build/default/production/mcc_generated_files/pin_manager.o
 .debug_aranges
                    0x02c8         0x20 build/default/production/main.o
 .debug_aranges
                    0x02e8         0x38 build/default/production/mcc_generated_files/motorBench/test_harness.o
 .debug_aranges
                    0x0320         0xb0 build/default/production/mcc_generated_files/motorBench/stall_detect.o
 .debug_aranges
                    0x03d0         0x28 build/default/production/mcc_generated_files/motorBench/mcaf_main.o
 .debug_aranges
                    0x03f8         0x28 build/default/production/mcc_generated_files/motorBench/startup.o
 .debug_aranges
                    0x0420         0x20 build/default/production/mcc_generated_files/motorBench/hal/mcaf_pin_manager.o
 .debug_aranges
                    0x0440         0x28 build/default/production/mcc_generated_files/motorBench/fault_handle.o
 .debug_aranges
                    0x0468         0x30 build/default/production/mcc_generated_files/motorBench/mcaf_sample_application.o
 .debug_aranges
                    0x0498         0x48 build/default/production/mcc_generated_files/motorBench/ui.o
 .debug_aranges
                    0x04e0         0x38 build/default/production/mcc_generated_files/motorBench/monitor.o
 .debug_aranges
                    0x0518         0x20 build/default/production/mcc_generated_files/motorBench/isr.o
 .debug_aranges
                    0x0538         0x20 build/default/production/mcc_generated_files/motorBench/system_state.o
 .debug_aranges
                    0x0558         0x28 build/default/production/mcc_generated_files/motorBench/current_measure.o
 .debug_aranges
                    0x0580         0x60 build/default/production/mcc_generated_files/motorBench/board_service.o
 .debug_aranges
                    0x05e0         0x50 build/default/production/mcc_generated_files/motorBench/foc.o
 .debug_aranges
                    0x0630         0x28 build/default/production/mcc_generated_files/motorBench/gate_drive.o
 .debug_aranges
                    0x0658         0x38 build/default/production/mcc_generated_files/motorBench/fault_detect.o
 .debug_aranges
                    0x0690         0x30 build/default/production/mcc_generated_files/motorBench/commutation/pll.o
 .debug_aranges
                    0x06c0         0x40 build/default/production/mcc_generated_files/motorBench/mcaf_traps.o
 .debug_aranges
                    0x0700         0x58 build/default/production/mcc_generated_files/motorBench/diagnostics.o
 .debug_aranges
                    0x0758         0x28 build/default/production/mcc_generated_files/motorBench/system_init.o
 .debug_aranges
                    0x0780         0x20 build/default/production/mcc_generated_files/motorBench/math_asm.o
 .debug_aranges
                    0x07a0         0x40 build/default/production/mcc_generated_files/motorBench/sat_PI.o
 .debug_aranges
                    0x07e0         0x20 build/default/production/mcc_generated_files/motorBench/parameters/init_params.o
 .debug_aranges
                    0x0800         0x30 build/default/production/mcc_generated_files/motorBench/recover.o
 .debug_aranges
                    0x0830         0x30 build/default/production/mcc_generated_files/motorBench/state_machine.o
 .debug_aranges
                    0x0860         0x30 build/default/production/mcc_generated_files/motorBench/hal/hardware_access_functions.o
 .debug_aranges
                    0x0890         0x28 build/default/production/mcc_generated_files/motorBench/adc_compensation.o
 .debug_aranges
                    0x08b8         0x38 build/default/production/mcc_generated_files/motorBench/commutation.o
 .debug_aranges
                    0x08f0         0x20 c:/program files/microchip/xc-dsc/v3.21/bin/bin/../../lib\libc99-pic30-elf.a(deqltle.EP_o)
 .debug_aranges
                    0x0910         0x20 c:/program files/microchip/xc-dsc/v3.21/bin/bin/../../lib\libc99-pic30-elf.a(dgtge.EP_o)
 .debug_aranges
                    0x0930         0x20 c:/program files/microchip/xc-dsc/v3.21/bin/bin/../../lib\libc99-pic30-elf.a(feqltle.EP_o)
 .debug_aranges
                    0x0950         0x20 c:/program files/microchip/xc-dsc/v3.21/bin/bin/../../lib\libc99-pic30-elf.a(fgtge.EP_o)
 .debug_aranges
                    0x0970         0x20 c:/program files/microchip/xc-dsc/v3.21/bin/bin/../../lib\libc99-pic30-elf.a(dcompare.EP_o)
 .debug_aranges
                    0x0990         0x20 c:/program files/microchip/xc-dsc/v3.21/bin/bin/../../lib\libc99-pic30-elf.a(dtype.EP_o)
 .debug_aranges
                    0x09b0         0x20 c:/program files/microchip/xc-dsc/v3.21/bin/bin/../../lib\libc99-pic30-elf.a(fcompare.EP_o)
 .debug_aranges
                    0x09d0         0x20 c:/program files/microchip/xc-dsc/v3.21/bin/bin/../../lib\libc99-pic30-elf.a(funpack2.EP_o)
 .debug_aranges
                    0x09f0         0x20 c:/program files/microchip/xc-dsc/v3.21/bin/bin/../../lib\libc99-pic30-elf.a(funpack.EP_o)
                    0x0000                  WREG0 = 0x0
                    0x0000                  _WREG0 = 0x0
                    0x0002                  WREG1 = 0x2
                    0x0002                  _WREG1 = 0x2
                    0x0004                  WREG2 = 0x4
                    0x0004                  _WREG2 = 0x4
                    0x0006                  WREG3 = 0x6
                    0x0006                  _WREG3 = 0x6
                    0x0008                  WREG4 = 0x8
                    0x0008                  _WREG4 = 0x8
                    0x000a                  WREG5 = 0xa
                    0x000a                  _WREG5 = 0xa
                    0x000c                  WREG6 = 0xc
                    0x000c                  _WREG6 = 0xc
                    0x000e                  WREG7 = 0xe
                    0x000e                  _WREG7 = 0xe
                    0x0010                  WREG8 = 0x10
                    0x0010                  _WREG8 = 0x10
                    0x0012                  WREG9 = 0x12
                    0x0012                  _WREG9 = 0x12
                    0x0014                  WREG10 = 0x14
                    0x0014                  _WREG10 = 0x14
                    0x0016                  WREG11 = 0x16
                    0x0016                  _WREG11 = 0x16
                    0x0018                  WREG12 = 0x18
                    0x0018                  _WREG12 = 0x18
                    0x001a                  WREG13 = 0x1a
                    0x001a                  _WREG13 = 0x1a
                    0x001c                  WREG14 = 0x1c
                    0x001c                  _WREG14 = 0x1c
                    0x001e                  WREG15 = 0x1e
                    0x001e                  _WREG15 = 0x1e
                    0x0020                  SPLIM = 0x20
                    0x0020                  _SPLIM = 0x20
                    0x0022                  ACCAL = 0x22
                    0x0022                  _ACCAL = 0x22
                    0x0024                  ACCAH = 0x24
                    0x0024                  _ACCAH = 0x24
                    0x0026                  ACCAU = 0x26
                    0x0026                  _ACCAU = 0x26
                    0x0028                  ACCBL = 0x28
                    0x0028                  _ACCBL = 0x28
                    0x002a                  ACCBH = 0x2a
                    0x002a                  _ACCBH = 0x2a
                    0x002c                  ACCBU = 0x2c
                    0x002c                  _ACCBU = 0x2c
                    0x002e                  PCL = 0x2e
                    0x002e                  _PCL = 0x2e
                    0x0030                  PCH = 0x30
                    0x0030                  _PCH = 0x30
                    0x0032                  DSRPAG = 0x32
                    0x0032                  _DSRPAG = 0x32
                    0x0032                  _DSRPAGbits = 0x32
                    0x0034                  DSWPAG = 0x34
                    0x0034                  _DSWPAG = 0x34
                    0x0034                  _DSWPAGbits = 0x34
                    0x0036                  RCOUNT = 0x36
                    0x0036                  _RCOUNT = 0x36
                    0x0038                  DCOUNT = 0x38
                    0x0038                  _DCOUNT = 0x38
                    0x003a                  DOSTARTL = 0x3a
                    0x003a                  _DOSTARTL = 0x3a
                    0x003c                  DOSTARTH = 0x3c
                    0x003c                  _DOSTARTH = 0x3c
                    0x003e                  DOENDL = 0x3e
                    0x003e                  _DOENDL = 0x3e
                    0x0040                  DOENDH = 0x40
                    0x0040                  _DOENDH = 0x40
                    0x0042                  SR = 0x42
                    0x0042                  _SR = 0x42
                    0x0042                  _SRbits = 0x42
                    0x0044                  CORCON = 0x44
                    0x0044                  _CORCON = 0x44
                    0x0044                  _CORCONbits = 0x44
                    0x0046                  MODCON = 0x46
                    0x0046                  _MODCON = 0x46
                    0x0046                  _MODCONbits = 0x46
                    0x0048                  XMODSRT = 0x48
                    0x0048                  _XMODSRT = 0x48
                    0x004a                  XMODEND = 0x4a
                    0x004a                  _XMODEND = 0x4a
                    0x004c                  YMODSRT = 0x4c
                    0x004c                  _YMODSRT = 0x4c
                    0x004e                  YMODEND = 0x4e
                    0x004e                  _YMODEND = 0x4e
                    0x0050                  XBREV = 0x50
                    0x0050                  _XBREV = 0x50
                    0x0050                  _XBREVbits = 0x50
                    0x0052                  DISICNT = 0x52
                    0x0052                  _DISICNT = 0x52
                    0x0054                  TBLPAG = 0x54
                    0x0054                  _TBLPAG = 0x54
                    0x0054                  _TBLPAGbits = 0x54
                    0x0058                  MSTRPR = 0x58
                    0x0058                  _MSTRPR = 0x58
                    0x0100                  TMR1 = 0x100
                    0x0100                  _TMR1 = 0x100
                    0x0102                  PR1 = 0x102
                    0x0102                  _PR1 = 0x102
                    0x0104                  T1CON = 0x104
                    0x0104                  _T1CON = 0x104
                    0x0104                  _T1CONbits = 0x104
                    0x0106                  TMR2 = 0x106
                    0x0106                  _TMR2 = 0x106
                    0x0108                  TMR3HLD = 0x108
                    0x0108                  _TMR3HLD = 0x108
                    0x010a                  TMR3 = 0x10a
                    0x010a                  _TMR3 = 0x10a
                    0x010c                  PR2 = 0x10c
                    0x010c                  _PR2 = 0x10c
                    0x010e                  PR3 = 0x10e
                    0x010e                  _PR3 = 0x10e
                    0x0110                  T2CON = 0x110
                    0x0110                  _T2CON = 0x110
                    0x0110                  _T2CONbits = 0x110
                    0x0112                  T3CON = 0x112
                    0x0112                  _T3CON = 0x112
                    0x0112                  _T3CONbits = 0x112
                    0x0114                  TMR4 = 0x114
                    0x0114                  _TMR4 = 0x114
                    0x0116                  TMR5HLD = 0x116
                    0x0116                  _TMR5HLD = 0x116
                    0x0118                  TMR5 = 0x118
                    0x0118                  _TMR5 = 0x118
                    0x011a                  PR4 = 0x11a
                    0x011a                  _PR4 = 0x11a
                    0x011c                  PR5 = 0x11c
                    0x011c                  _PR5 = 0x11c
                    0x011e                  T4CON = 0x11e
                    0x011e                  _T4CON = 0x11e
                    0x011e                  _T4CONbits = 0x11e
                    0x0120                  T5CON = 0x120
                    0x0120                  _T5CON = 0x120
                    0x0120                  _T5CONbits = 0x120
                    0x0140                  IC1CON1 = 0x140
                    0x0140                  _IC1CON1 = 0x140
                    0x0140                  _IC1CON1bits = 0x140
                    0x0142                  IC1CON2 = 0x142
                    0x0142                  _IC1CON2 = 0x142
                    0x0142                  _IC1CON2bits = 0x142
                    0x0144                  IC1BUF = 0x144
                    0x0144                  _IC1BUF = 0x144
                    0x0146                  IC1TMR = 0x146
                    0x0146                  _IC1TMR = 0x146
                    0x0148                  IC2CON1 = 0x148
                    0x0148                  _IC2CON1 = 0x148
                    0x0148                  _IC2CON1bits = 0x148
                    0x014a                  IC2CON2 = 0x14a
                    0x014a                  _IC2CON2 = 0x14a
                    0x014a                  _IC2CON2bits = 0x14a
                    0x014c                  IC2BUF = 0x14c
                    0x014c                  _IC2BUF = 0x14c
                    0x014e                  IC2TMR = 0x14e
                    0x014e                  _IC2TMR = 0x14e
                    0x0150                  IC3CON1 = 0x150
                    0x0150                  _IC3CON1 = 0x150
                    0x0150                  _IC3CON1bits = 0x150
                    0x0152                  IC3CON2 = 0x152
                    0x0152                  _IC3CON2 = 0x152
                    0x0152                  _IC3CON2bits = 0x152
                    0x0154                  IC3BUF = 0x154
                    0x0154                  _IC3BUF = 0x154
                    0x0156                  IC3TMR = 0x156
                    0x0156                  _IC3TMR = 0x156
                    0x0158                  IC4CON1 = 0x158
                    0x0158                  _IC4CON1 = 0x158
                    0x0158                  _IC4CON1bits = 0x158
                    0x015a                  IC4CON2 = 0x15a
                    0x015a                  _IC4CON2 = 0x15a
                    0x015a                  _IC4CON2bits = 0x15a
                    0x015c                  IC4BUF = 0x15c
                    0x015c                  _IC4BUF = 0x15c
                    0x015e                  IC4TMR = 0x15e
                    0x015e                  _IC4TMR = 0x15e
                    0x01c0                  QEI1CON = 0x1c0
                    0x01c0                  _QEI1CON = 0x1c0
                    0x01c0                  _QEI1CONbits = 0x1c0
                    0x01c2                  QEI1IOC = 0x1c2
                    0x01c2                  _QEI1IOC = 0x1c2
                    0x01c2                  _QEI1IOCbits = 0x1c2
                    0x01c4                  QEI1STAT = 0x1c4
                    0x01c4                  _QEI1STAT = 0x1c4
                    0x01c4                  _QEI1STATbits = 0x1c4
                    0x01c6                  POS1CNTL = 0x1c6
                    0x01c6                  _POS1CNTL = 0x1c6
                    0x01c8                  POS1CNTH = 0x1c8
                    0x01c8                  _POS1CNTH = 0x1c8
                    0x01ca                  POS1HLD = 0x1ca
                    0x01ca                  _POS1HLD = 0x1ca
                    0x01cc                  VEL1CNT = 0x1cc
                    0x01cc                  _VEL1CNT = 0x1cc
                    0x01ce                  INT1TMRL = 0x1ce
                    0x01ce                  _INT1TMRL = 0x1ce
                    0x01d0                  INT1TMRH = 0x1d0
                    0x01d0                  _INT1TMRH = 0x1d0
                    0x01d2                  INT1HLDL = 0x1d2
                    0x01d2                  _INT1HLDL = 0x1d2
                    0x01d4                  INT1HLDH = 0x1d4
                    0x01d4                  _INT1HLDH = 0x1d4
                    0x01d6                  INDX1CNTL = 0x1d6
                    0x01d6                  _INDX1CNTL = 0x1d6
                    0x01d8                  INDX1CNTH = 0x1d8
                    0x01d8                  _INDX1CNTH = 0x1d8
                    0x01da                  INDX1HLD = 0x1da
                    0x01da                  _INDX1HLD = 0x1da
                    0x01dc                  QEI1GECL = 0x1dc
                    0x01dc                  _QEI1GECL = 0x1dc
                    0x01dc                  QEI1ICL = 0x1dc
                    0x01dc                  _QEI1ICL = 0x1dc
                    0x01de                  QEI1GECH = 0x1de
                    0x01de                  _QEI1GECH = 0x1de
                    0x01de                  QEI1ICH = 0x1de
                    0x01de                  _QEI1ICH = 0x1de
                    0x01e0                  QEI1LECL = 0x1e0
                    0x01e0                  _QEI1LECL = 0x1e0
                    0x01e2                  QEI1LECH = 0x1e2
                    0x01e2                  _QEI1LECH = 0x1e2
                    0x0200                  I2C1RCV = 0x200
                    0x0200                  _I2C1RCV = 0x200
                    0x0202                  I2C1TRN = 0x202
                    0x0202                  _I2C1TRN = 0x202
                    0x0204                  I2C1BRG = 0x204
                    0x0204                  _I2C1BRG = 0x204
                    0x0206                  I2C1CON = 0x206
                    0x0206                  _I2C1CON = 0x206
                    0x0206                  _I2C1CONbits = 0x206
                    0x0208                  I2C1STAT = 0x208
                    0x0208                  _I2C1STAT = 0x208
                    0x0208                  _I2C1STATbits = 0x208
                    0x020a                  I2C1ADD = 0x20a
                    0x020a                  _I2C1ADD = 0x20a
                    0x020c                  I2C1MSK = 0x20c
                    0x020c                  _I2C1MSK = 0x20c
                    0x0210                  I2C2RCV = 0x210
                    0x0210                  _I2C2RCV = 0x210
                    0x0212                  I2C2TRN = 0x212
                    0x0212                  _I2C2TRN = 0x212
                    0x0214                  I2C2BRG = 0x214
                    0x0214                  _I2C2BRG = 0x214
                    0x0216                  I2C2CON = 0x216
                    0x0216                  _I2C2CON = 0x216
                    0x0216                  _I2C2CONbits = 0x216
                    0x0218                  I2C2STAT = 0x218
                    0x0218                  _I2C2STAT = 0x218
                    0x0218                  _I2C2STATbits = 0x218
                    0x021a                  I2C2ADD = 0x21a
                    0x021a                  _I2C2ADD = 0x21a
                    0x021c                  I2C2MSK = 0x21c
                    0x021c                  _I2C2MSK = 0x21c
                    0x0220                  U1MODE = 0x220
                    0x0220                  _U1MODE = 0x220
                    0x0220                  _U1MODEbits = 0x220
                    0x0222                  U1STA = 0x222
                    0x0222                  _U1STA = 0x222
                    0x0222                  _U1STAbits = 0x222
                    0x0224                  U1TXREG = 0x224
                    0x0224                  _U1TXREG = 0x224
                    0x0226                  U1RXREG = 0x226
                    0x0226                  _U1RXREG = 0x226
                    0x0228                  U1BRG = 0x228
                    0x0228                  _U1BRG = 0x228
                    0x0230                  U2MODE = 0x230
                    0x0230                  _U2MODE = 0x230
                    0x0230                  _U2MODEbits = 0x230
                    0x0232                  U2STA = 0x232
                    0x0232                  _U2STA = 0x232
                    0x0232                  _U2STAbits = 0x232
                    0x0234                  U2TXREG = 0x234
                    0x0234                  _U2TXREG = 0x234
                    0x0236                  U2RXREG = 0x236
                    0x0236                  _U2RXREG = 0x236
                    0x0238                  U2BRG = 0x238
                    0x0238                  _U2BRG = 0x238
                    0x0240                  SPI1STAT = 0x240
                    0x0240                  _SPI1STAT = 0x240
                    0x0240                  _SPI1STATbits = 0x240
                    0x0242                  SPI1CON1 = 0x242
                    0x0242                  _SPI1CON1 = 0x242
                    0x0242                  _SPI1CON1bits = 0x242
                    0x0244                  SPI1CON2 = 0x244
                    0x0244                  _SPI1CON2 = 0x244
                    0x0244                  _SPI1CON2bits = 0x244
                    0x0248                  SPI1BUF = 0x248
                    0x0248                  _SPI1BUF = 0x248
                    0x0260                  SPI2STAT = 0x260
                    0x0260                  _SPI2STAT = 0x260
                    0x0260                  _SPI2STATbits = 0x260
                    0x0262                  SPI2CON1 = 0x262
                    0x0262                  _SPI2CON1 = 0x262
                    0x0262                  _SPI2CON1bits = 0x262
                    0x0264                  SPI2CON2 = 0x264
                    0x0264                  _SPI2CON2 = 0x264
                    0x0264                  _SPI2CON2bits = 0x264
                    0x0268                  SPI2BUF = 0x268
                    0x0268                  _SPI2BUF = 0x268
                    0x0300                  ADC1BUF0 = 0x300
                    0x0300                  _ADC1BUF0 = 0x300
                    0x0302                  ADC1BUF1 = 0x302
                    0x0302                  _ADC1BUF1 = 0x302
                    0x0304                  ADC1BUF2 = 0x304
                    0x0304                  _ADC1BUF2 = 0x304
                    0x0306                  ADC1BUF3 = 0x306
                    0x0306                  _ADC1BUF3 = 0x306
                    0x0308                  ADC1BUF4 = 0x308
                    0x0308                  _ADC1BUF4 = 0x308
                    0x030a                  ADC1BUF5 = 0x30a
                    0x030a                  _ADC1BUF5 = 0x30a
                    0x030c                  ADC1BUF6 = 0x30c
                    0x030c                  _ADC1BUF6 = 0x30c
                    0x030e                  ADC1BUF7 = 0x30e
                    0x030e                  _ADC1BUF7 = 0x30e
                    0x0310                  ADC1BUF8 = 0x310
                    0x0310                  _ADC1BUF8 = 0x310
                    0x0312                  ADC1BUF9 = 0x312
                    0x0312                  _ADC1BUF9 = 0x312
                    0x0314                  ADC1BUFA = 0x314
                    0x0314                  _ADC1BUFA = 0x314
                    0x0316                  ADC1BUFB = 0x316
                    0x0316                  _ADC1BUFB = 0x316
                    0x0318                  ADC1BUFC = 0x318
                    0x0318                  _ADC1BUFC = 0x318
                    0x031a                  ADC1BUFD = 0x31a
                    0x031a                  _ADC1BUFD = 0x31a
                    0x031c                  ADC1BUFE = 0x31c
                    0x031c                  _ADC1BUFE = 0x31c
                    0x031e                  ADC1BUFF = 0x31e
                    0x031e                  _ADC1BUFF = 0x31e
                    0x0320                  AD1CON1 = 0x320
                    0x0320                  _AD1CON1 = 0x320
                    0x0320                  _AD1CON1bits = 0x320
                    0x0322                  AD1CON2 = 0x322
                    0x0322                  _AD1CON2 = 0x322
                    0x0322                  _AD1CON2bits = 0x322
                    0x0324                  AD1CON3 = 0x324
                    0x0324                  _AD1CON3 = 0x324
                    0x0324                  _AD1CON3bits = 0x324
                    0x0326                  AD1CHS123 = 0x326
                    0x0326                  _AD1CHS123 = 0x326
                    0x0326                  _AD1CHS123bits = 0x326
                    0x0328                  AD1CHS0 = 0x328
                    0x0328                  _AD1CHS0 = 0x328
                    0x0328                  _AD1CHS0bits = 0x328
                    0x032e                  AD1CSSH = 0x32e
                    0x032e                  _AD1CSSH = 0x32e
                    0x032e                  _AD1CSSHbits = 0x32e
                    0x0330                  AD1CSSL = 0x330
                    0x0330                  _AD1CSSL = 0x330
                    0x0330                  _AD1CSSLbits = 0x330
                    0x0332                  AD1CON4 = 0x332
                    0x0332                  _AD1CON4 = 0x332
                    0x0332                  _AD1CON4bits = 0x332
                    0x033a                  CTMUCON1 = 0x33a
                    0x033a                  _CTMUCON1 = 0x33a
                    0x033a                  _CTMUCON1bits = 0x33a
                    0x033c                  CTMUCON2 = 0x33c
                    0x033c                  _CTMUCON2 = 0x33c
                    0x033c                  _CTMUCON2bits = 0x33c
                    0x033e                  CTMUICON = 0x33e
                    0x033e                  _CTMUICON = 0x33e
                    0x033e                  _CTMUICONbits = 0x33e
                    0x0400                  C1CTRL1 = 0x400
                    0x0400                  _C1CTRL1 = 0x400
                    0x0400                  _C1CTRL1bits = 0x400
                    0x0402                  C1CTRL2 = 0x402
                    0x0402                  _C1CTRL2 = 0x402
                    0x0402                  _C1CTRL2bits = 0x402
                    0x0404                  C1VEC = 0x404
                    0x0404                  _C1VEC = 0x404
                    0x0404                  _C1VECbits = 0x404
                    0x0406                  C1FCTRL = 0x406
                    0x0406                  _C1FCTRL = 0x406
                    0x0406                  _C1FCTRLbits = 0x406
                    0x0408                  C1FIFO = 0x408
                    0x0408                  _C1FIFO = 0x408
                    0x0408                  _C1FIFObits = 0x408
                    0x040a                  C1INTF = 0x40a
                    0x040a                  _C1INTF = 0x40a
                    0x040a                  _C1INTFbits = 0x40a
                    0x040c                  C1INTE = 0x40c
                    0x040c                  _C1INTE = 0x40c
                    0x040c                  _C1INTEbits = 0x40c
                    0x040e                  C1EC = 0x40e
                    0x040e                  _C1EC = 0x40e
                    0x040e                  _C1ECbits = 0x40e
                    0x040e                  C1RERRCNT = 0x40e
                    0x040e                  _C1RERRCNT = 0x40e
                    0x040f                  C1TERRCNT = 0x40f
                    0x040f                  _C1TERRCNT = 0x40f
                    0x0410                  C1CFG1 = 0x410
                    0x0410                  _C1CFG1 = 0x410
                    0x0410                  _C1CFG1bits = 0x410
                    0x0412                  C1CFG2 = 0x412
                    0x0412                  _C1CFG2 = 0x412
                    0x0412                  _C1CFG2bits = 0x412
                    0x0414                  C1FEN1 = 0x414
                    0x0414                  _C1FEN1 = 0x414
                    0x0414                  _C1FEN1bits = 0x414
                    0x0418                  C1FMSKSEL1 = 0x418
                    0x0418                  _C1FMSKSEL1 = 0x418
                    0x0418                  _C1FMSKSEL1bits = 0x418
                    0x041a                  C1FMSKSEL2 = 0x41a
                    0x041a                  _C1FMSKSEL2 = 0x41a
                    0x041a                  _C1FMSKSEL2bits = 0x41a
                    0x0420                  C1BUFPNT1 = 0x420
                    0x0420                  _C1BUFPNT1 = 0x420
                    0x0420                  _C1BUFPNT1bits = 0x420
                    0x0420                  C1RXFUL1 = 0x420
                    0x0420                  _C1RXFUL1 = 0x420
                    0x0420                  _C1RXFUL1bits = 0x420
                    0x0422                  C1BUFPNT2 = 0x422
                    0x0422                  _C1BUFPNT2 = 0x422
                    0x0422                  _C1BUFPNT2bits = 0x422
                    0x0422                  C1RXFUL2 = 0x422
                    0x0422                  _C1RXFUL2 = 0x422
                    0x0422                  _C1RXFUL2bits = 0x422
                    0x0424                  C1BUFPNT3 = 0x424
                    0x0424                  _C1BUFPNT3 = 0x424
                    0x0424                  _C1BUFPNT3bits = 0x424
                    0x0426                  C1BUFPNT4 = 0x426
                    0x0426                  _C1BUFPNT4 = 0x426
                    0x0426                  _C1BUFPNT4bits = 0x426
                    0x0428                  C1RXOVF1 = 0x428
                    0x0428                  _C1RXOVF1 = 0x428
                    0x0428                  _C1RXOVF1bits = 0x428
                    0x042a                  C1RXOVF2 = 0x42a
                    0x042a                  _C1RXOVF2 = 0x42a
                    0x042a                  _C1RXOVF2bits = 0x42a
                    0x0430                  C1RXM0SID = 0x430
                    0x0430                  _C1RXM0SID = 0x430
                    0x0430                  _C1RXM0SIDbits = 0x430
                    0x0430                  C1TR01CON = 0x430
                    0x0430                  _C1TR01CON = 0x430
                    0x0430                  _C1TR01CONbits = 0x430
                    0x0432                  C1RXM0EID = 0x432
                    0x0432                  _C1RXM0EID = 0x432
                    0x0432                  _C1RXM0EIDbits = 0x432
                    0x0432                  C1TR23CON = 0x432
                    0x0432                  _C1TR23CON = 0x432
                    0x0432                  _C1TR23CONbits = 0x432
                    0x0434                  C1RXM1SID = 0x434
                    0x0434                  _C1RXM1SID = 0x434
                    0x0434                  _C1RXM1SIDbits = 0x434
                    0x0434                  C1TR45CON = 0x434
                    0x0434                  _C1TR45CON = 0x434
                    0x0434                  _C1TR45CONbits = 0x434
                    0x0436                  C1RXM1EID = 0x436
                    0x0436                  _C1RXM1EID = 0x436
                    0x0436                  _C1RXM1EIDbits = 0x436
                    0x0436                  C1TR67CON = 0x436
                    0x0436                  _C1TR67CON = 0x436
                    0x0436                  _C1TR67CONbits = 0x436
                    0x0438                  C1RXM2SID = 0x438
                    0x0438                  _C1RXM2SID = 0x438
                    0x0438                  _C1RXM2SIDbits = 0x438
                    0x043a                  C1RXM2EID = 0x43a
                    0x043a                  _C1RXM2EID = 0x43a
                    0x043a                  _C1RXM2EIDbits = 0x43a
                    0x0440                  C1RXD = 0x440
                    0x0440                  _C1RXD = 0x440
                    0x0440                  C1RXF0SID = 0x440
                    0x0440                  _C1RXF0SID = 0x440
                    0x0440                  _C1RXF0SIDbits = 0x440
                    0x0442                  C1RXF0EID = 0x442
                    0x0442                  _C1RXF0EID = 0x442
                    0x0442                  _C1RXF0EIDbits = 0x442
                    0x0442                  C1TXD = 0x442
                    0x0442                  _C1TXD = 0x442
                    0x0444                  C1RXF1SID = 0x444
                    0x0444                  _C1RXF1SID = 0x444
                    0x0444                  _C1RXF1SIDbits = 0x444
                    0x0446                  C1RXF1EID = 0x446
                    0x0446                  _C1RXF1EID = 0x446
                    0x0446                  _C1RXF1EIDbits = 0x446
                    0x0448                  C1RXF2SID = 0x448
                    0x0448                  _C1RXF2SID = 0x448
                    0x0448                  _C1RXF2SIDbits = 0x448
                    0x044a                  C1RXF2EID = 0x44a
                    0x044a                  _C1RXF2EID = 0x44a
                    0x044a                  _C1RXF2EIDbits = 0x44a
                    0x044c                  C1RXF3SID = 0x44c
                    0x044c                  _C1RXF3SID = 0x44c
                    0x044c                  _C1RXF3SIDbits = 0x44c
                    0x044e                  C1RXF3EID = 0x44e
                    0x044e                  _C1RXF3EID = 0x44e
                    0x044e                  _C1RXF3EIDbits = 0x44e
                    0x0450                  C1RXF4SID = 0x450
                    0x0450                  _C1RXF4SID = 0x450
                    0x0450                  _C1RXF4SIDbits = 0x450
                    0x0452                  C1RXF4EID = 0x452
                    0x0452                  _C1RXF4EID = 0x452
                    0x0452                  _C1RXF4EIDbits = 0x452
                    0x0454                  C1RXF5SID = 0x454
                    0x0454                  _C1RXF5SID = 0x454
                    0x0454                  _C1RXF5SIDbits = 0x454
                    0x0456                  C1RXF5EID = 0x456
                    0x0456                  _C1RXF5EID = 0x456
                    0x0456                  _C1RXF5EIDbits = 0x456
                    0x0458                  C1RXF6SID = 0x458
                    0x0458                  _C1RXF6SID = 0x458
                    0x0458                  _C1RXF6SIDbits = 0x458
                    0x045a                  C1RXF6EID = 0x45a
                    0x045a                  _C1RXF6EID = 0x45a
                    0x045a                  _C1RXF6EIDbits = 0x45a
                    0x045c                  C1RXF7SID = 0x45c
                    0x045c                  _C1RXF7SID = 0x45c
                    0x045c                  _C1RXF7SIDbits = 0x45c
                    0x045e                  C1RXF7EID = 0x45e
                    0x045e                  _C1RXF7EID = 0x45e
                    0x045e                  _C1RXF7EIDbits = 0x45e
                    0x0460                  C1RXF8SID = 0x460
                    0x0460                  _C1RXF8SID = 0x460
                    0x0460                  _C1RXF8SIDbits = 0x460
                    0x0462                  C1RXF8EID = 0x462
                    0x0462                  _C1RXF8EID = 0x462
                    0x0462                  _C1RXF8EIDbits = 0x462
                    0x0464                  C1RXF9SID = 0x464
                    0x0464                  _C1RXF9SID = 0x464
                    0x0464                  _C1RXF9SIDbits = 0x464
                    0x0466                  C1RXF9EID = 0x466
                    0x0466                  _C1RXF9EID = 0x466
                    0x0466                  _C1RXF9EIDbits = 0x466
                    0x0468                  C1RXF10SID = 0x468
                    0x0468                  _C1RXF10SID = 0x468
                    0x0468                  _C1RXF10SIDbits = 0x468
                    0x046a                  C1RXF10EID = 0x46a
                    0x046a                  _C1RXF10EID = 0x46a
                    0x046a                  _C1RXF10EIDbits = 0x46a
                    0x046c                  C1RXF11SID = 0x46c
                    0x046c                  _C1RXF11SID = 0x46c
                    0x046c                  _C1RXF11SIDbits = 0x46c
                    0x046e                  C1RXF11EID = 0x46e
                    0x046e                  _C1RXF11EID = 0x46e
                    0x046e                  _C1RXF11EIDbits = 0x46e
                    0x0470                  C1RXF12SID = 0x470
                    0x0470                  _C1RXF12SID = 0x470
                    0x0470                  _C1RXF12SIDbits = 0x470
                    0x0472                  C1RXF12EID = 0x472
                    0x0472                  _C1RXF12EID = 0x472
                    0x0472                  _C1RXF12EIDbits = 0x472
                    0x0474                  C1RXF13SID = 0x474
                    0x0474                  _C1RXF13SID = 0x474
                    0x0474                  _C1RXF13SIDbits = 0x474
                    0x0476                  C1RXF13EID = 0x476
                    0x0476                  _C1RXF13EID = 0x476
                    0x0476                  _C1RXF13EIDbits = 0x476
                    0x0478                  C1RXF14SID = 0x478
                    0x0478                  _C1RXF14SID = 0x478
                    0x0478                  _C1RXF14SIDbits = 0x478
                    0x047a                  C1RXF14EID = 0x47a
                    0x047a                  _C1RXF14EID = 0x47a
                    0x047a                  _C1RXF14EIDbits = 0x47a
                    0x047c                  C1RXF15SID = 0x47c
                    0x047c                  _C1RXF15SID = 0x47c
                    0x047c                  _C1RXF15SIDbits = 0x47c
                    0x047e                  C1RXF15EID = 0x47e
                    0x047e                  _C1RXF15EID = 0x47e
                    0x047e                  _C1RXF15EIDbits = 0x47e
                    0x0640                  CRCCON1 = 0x640
                    0x0640                  _CRCCON1 = 0x640
                    0x0640                  _CRCCON1bits = 0x640
                    0x0642                  CRCCON2 = 0x642
                    0x0642                  _CRCCON2 = 0x642
                    0x0642                  _CRCCON2bits = 0x642
                    0x0644                  CRCXORL = 0x644
                    0x0644                  _CRCXORL = 0x644
                    0x0644                  _CRCXORLbits = 0x644
                    0x0646                  CRCXORH = 0x646
                    0x0646                  _CRCXORH = 0x646
                    0x0646                  _CRCXORHbits = 0x646
                    0x0648                  CRCDAT = 0x648
                    0x0648                  _CRCDAT = 0x648
                    0x0648                  CRCDATL = 0x648
                    0x0648                  _CRCDATL = 0x648
                    0x064a                  CRCDATH = 0x64a
                    0x064a                  _CRCDATH = 0x64a
                    0x064c                  CRCWDAT = 0x64c
                    0x064c                  _CRCWDAT = 0x64c
                    0x064c                  CRCWDATL = 0x64c
                    0x064c                  _CRCWDATL = 0x64c
                    0x064e                  CRCWDATH = 0x64e
                    0x064e                  _CRCWDATH = 0x64e
                    0x0680                  RPOR0 = 0x680
                    0x0680                  _RPOR0 = 0x680
                    0x0680                  _RPOR0bits = 0x680
                    0x0682                  RPOR1 = 0x682
                    0x0682                  _RPOR1 = 0x682
                    0x0682                  _RPOR1bits = 0x682
                    0x0684                  RPOR2 = 0x684
                    0x0684                  _RPOR2 = 0x684
                    0x0684                  _RPOR2bits = 0x684
                    0x0686                  RPOR3 = 0x686
                    0x0686                  _RPOR3 = 0x686
                    0x0686                  _RPOR3bits = 0x686
                    0x0688                  RPOR4 = 0x688
                    0x0688                  _RPOR4 = 0x688
                    0x0688                  _RPOR4bits = 0x688
                    0x068a                  RPOR5 = 0x68a
                    0x068a                  _RPOR5 = 0x68a
                    0x068a                  _RPOR5bits = 0x68a
                    0x068c                  RPOR6 = 0x68c
                    0x068c                  _RPOR6 = 0x68c
                    0x068c                  _RPOR6bits = 0x68c
                    0x068e                  RPOR7 = 0x68e
                    0x068e                  _RPOR7 = 0x68e
                    0x068e                  _RPOR7bits = 0x68e
                    0x0690                  RPOR8 = 0x690
                    0x0690                  _RPOR8 = 0x690
                    0x0690                  _RPOR8bits = 0x690
                    0x0692                  RPOR9 = 0x692
                    0x0692                  _RPOR9 = 0x692
                    0x0692                  _RPOR9bits = 0x692
                    0x06a0                  RPINR0 = 0x6a0
                    0x06a0                  _RPINR0 = 0x6a0
                    0x06a0                  _RPINR0bits = 0x6a0
                    0x06a2                  RPINR1 = 0x6a2
                    0x06a2                  _RPINR1 = 0x6a2
                    0x06a2                  _RPINR1bits = 0x6a2
                    0x06a6                  RPINR3 = 0x6a6
                    0x06a6                  _RPINR3 = 0x6a6
                    0x06a6                  _RPINR3bits = 0x6a6
                    0x06ae                  RPINR7 = 0x6ae
                    0x06ae                  _RPINR7 = 0x6ae
                    0x06ae                  _RPINR7bits = 0x6ae
                    0x06b0                  RPINR8 = 0x6b0
                    0x06b0                  _RPINR8 = 0x6b0
                    0x06b0                  _RPINR8bits = 0x6b0
                    0x06b6                  RPINR11 = 0x6b6
                    0x06b6                  _RPINR11 = 0x6b6
                    0x06b6                  _RPINR11bits = 0x6b6
                    0x06b8                  RPINR12 = 0x6b8
                    0x06b8                  _RPINR12 = 0x6b8
                    0x06b8                  _RPINR12bits = 0x6b8
                    0x06bc                  RPINR14 = 0x6bc
                    0x06bc                  _RPINR14 = 0x6bc
                    0x06bc                  _RPINR14bits = 0x6bc
                    0x06be                  RPINR15 = 0x6be
                    0x06be                  _RPINR15 = 0x6be
                    0x06be                  _RPINR15bits = 0x6be
                    0x06c4                  RPINR18 = 0x6c4
                    0x06c4                  _RPINR18 = 0x6c4
                    0x06c4                  _RPINR18bits = 0x6c4
                    0x06c6                  RPINR19 = 0x6c6
                    0x06c6                  _RPINR19 = 0x6c6
                    0x06c6                  _RPINR19bits = 0x6c6
                    0x06cc                  RPINR22 = 0x6cc
                    0x06cc                  _RPINR22 = 0x6cc
                    0x06cc                  _RPINR22bits = 0x6cc
                    0x06ce                  RPINR23 = 0x6ce
                    0x06ce                  _RPINR23 = 0x6ce
                    0x06ce                  _RPINR23bits = 0x6ce
                    0x06d4                  RPINR26 = 0x6d4
                    0x06d4                  _RPINR26 = 0x6d4
                    0x06d4                  _RPINR26bits = 0x6d4
                    0x06ea                  RPINR37 = 0x6ea
                    0x06ea                  _RPINR37 = 0x6ea
                    0x06ea                  _RPINR37bits = 0x6ea
                    0x06ec                  RPINR38 = 0x6ec
                    0x06ec                  _RPINR38 = 0x6ec
                    0x06ec                  _RPINR38bits = 0x6ec
                    0x06ee                  RPINR39 = 0x6ee
                    0x06ee                  _RPINR39 = 0x6ee
                    0x06ee                  _RPINR39bits = 0x6ee
                    0x0728                  NVMCON = 0x728
                    0x0728                  _NVMCON = 0x728
                    0x0728                  _NVMCONbits = 0x728
                    0x072a                  NVMADR = 0x72a
                    0x072a                  _NVMADR = 0x72a
                    0x072c                  NVMADRU = 0x72c
                    0x072c                  _NVMADRU = 0x72c
                    0x072c                  _NVMADRUbits = 0x72c
                    0x072e                  NVMKEY = 0x72e
                    0x072e                  _NVMKEY = 0x72e
                    0x0740                  RCON = 0x740
                    0x0740                  _RCON = 0x740
                    0x0740                  _RCONbits = 0x740
                    0x0742                  OSCCON = 0x742
                    0x0742                  _OSCCON = 0x742
                    0x0742                  _OSCCONbits = 0x742
                    0x0742                  OSCCONL = 0x742
                    0x0742                  _OSCCONL = 0x742
                    0x0743                  OSCCONH = 0x743
                    0x0743                  _OSCCONH = 0x743
                    0x0744                  CLKDIV = 0x744
                    0x0744                  _CLKDIV = 0x744
                    0x0744                  _CLKDIVbits = 0x744
                    0x0746                  PLLFBD = 0x746
                    0x0746                  _PLLFBD = 0x746
                    0x0746                  _PLLFBDbits = 0x746
                    0x0748                  OSCTUN = 0x748
                    0x0748                  _OSCTUN = 0x748
                    0x0748                  _OSCTUNbits = 0x748
                    0x074e                  REFOCON = 0x74e
                    0x074e                  _REFOCON = 0x74e
                    0x074e                  _REFOCONbits = 0x74e
                    0x0760                  PMD1 = 0x760
                    0x0760                  _PMD1 = 0x760
                    0x0760                  _PMD1bits = 0x760
                    0x0762                  PMD2 = 0x762
                    0x0762                  _PMD2 = 0x762
                    0x0762                  _PMD2bits = 0x762
                    0x0764                  PMD3 = 0x764
                    0x0764                  _PMD3 = 0x764
                    0x0764                  _PMD3bits = 0x764
                    0x0766                  PMD4 = 0x766
                    0x0766                  _PMD4 = 0x766
                    0x0766                  _PMD4bits = 0x766
                    0x076a                  PMD6 = 0x76a
                    0x076a                  _PMD6 = 0x76a
                    0x076a                  _PMD6bits = 0x76a
                    0x076c                  PMD7 = 0x76c
                    0x076c                  _PMD7 = 0x76c
                    0x076c                  _PMD7bits = 0x76c
                    0x0800                  IFS0 = 0x800
                    0x0800                  _IFS0 = 0x800
                    0x0800                  _IFS0bits = 0x800
                    0x0802                  IFS1 = 0x802
                    0x0802                  _IFS1 = 0x802
                    0x0802                  _IFS1bits = 0x802
                    0x0804                  IFS2 = 0x804
                    0x0804                  _IFS2 = 0x804
                    0x0804                  _IFS2bits = 0x804
                    0x0806                  IFS3 = 0x806
                    0x0806                  _IFS3 = 0x806
                    0x0806                  _IFS3bits = 0x806
                    0x0808                  IFS4 = 0x808
                    0x0808                  _IFS4 = 0x808
                    0x0808                  _IFS4bits = 0x808
                    0x080a                  IFS5 = 0x80a
                    0x080a                  _IFS5 = 0x80a
                    0x080a                  _IFS5bits = 0x80a
                    0x080c                  IFS6 = 0x80c
                    0x080c                  _IFS6 = 0x80c
                    0x080c                  _IFS6bits = 0x80c
                    0x0810                  IFS8 = 0x810
                    0x0810                  _IFS8 = 0x810
                    0x0810                  _IFS8bits = 0x810
                    0x0812                  IFS9 = 0x812
                    0x0812                  _IFS9 = 0x812
                    0x0812                  _IFS9bits = 0x812
                    0x0820                  IEC0 = 0x820
                    0x0820                  _IEC0 = 0x820
                    0x0820                  _IEC0bits = 0x820
                    0x0822                  IEC1 = 0x822
                    0x0822                  _IEC1 = 0x822
                    0x0822                  _IEC1bits = 0x822
                    0x0824                  IEC2 = 0x824
                    0x0824                  _IEC2 = 0x824
                    0x0824                  _IEC2bits = 0x824
                    0x0826                  IEC3 = 0x826
                    0x0826                  _IEC3 = 0x826
                    0x0826                  _IEC3bits = 0x826
                    0x0828                  IEC4 = 0x828
                    0x0828                  _IEC4 = 0x828
                    0x0828                  _IEC4bits = 0x828
                    0x082a                  IEC5 = 0x82a
                    0x082a                  _IEC5 = 0x82a
                    0x082a                  _IEC5bits = 0x82a
                    0x082c                  IEC6 = 0x82c
                    0x082c                  _IEC6 = 0x82c
                    0x082c                  _IEC6bits = 0x82c
                    0x0830                  IEC8 = 0x830
                    0x0830                  _IEC8 = 0x830
                    0x0830                  _IEC8bits = 0x830
                    0x0832                  IEC9 = 0x832
                    0x0832                  _IEC9 = 0x832
                    0x0832                  _IEC9bits = 0x832
                    0x0840                  IPC0 = 0x840
                    0x0840                  _IPC0 = 0x840
                    0x0840                  _IPC0bits = 0x840
                    0x0842                  IPC1 = 0x842
                    0x0842                  _IPC1 = 0x842
                    0x0842                  _IPC1bits = 0x842
                    0x0844                  IPC2 = 0x844
                    0x0844                  _IPC2 = 0x844
                    0x0844                  _IPC2bits = 0x844
                    0x0846                  IPC3 = 0x846
                    0x0846                  _IPC3 = 0x846
                    0x0846                  _IPC3bits = 0x846
                    0x0848                  IPC4 = 0x848
                    0x0848                  _IPC4 = 0x848
                    0x0848                  _IPC4bits = 0x848
                    0x084a                  IPC5 = 0x84a
                    0x084a                  _IPC5 = 0x84a
                    0x084a                  _IPC5bits = 0x84a
                    0x084c                  IPC6 = 0x84c
                    0x084c                  _IPC6 = 0x84c
                    0x084c                  _IPC6bits = 0x84c
                    0x084e                  IPC7 = 0x84e
                    0x084e                  _IPC7 = 0x84e
                    0x084e                  _IPC7bits = 0x84e
                    0x0850                  IPC8 = 0x850
                    0x0850                  _IPC8 = 0x850
                    0x0850                  _IPC8bits = 0x850
                    0x0852                  IPC9 = 0x852
                    0x0852                  _IPC9 = 0x852
                    0x0852                  _IPC9bits = 0x852
                    0x0858                  IPC12 = 0x858
                    0x0858                  _IPC12 = 0x858
                    0x0858                  _IPC12bits = 0x858
                    0x085c                  IPC14 = 0x85c
                    0x085c                  _IPC14 = 0x85c
                    0x085c                  _IPC14bits = 0x85c
                    0x0860                  IPC16 = 0x860
                    0x0860                  _IPC16 = 0x860
                    0x0860                  _IPC16bits = 0x860
                    0x0862                  IPC17 = 0x862
                    0x0862                  _IPC17 = 0x862
                    0x0862                  _IPC17bits = 0x862
                    0x0866                  IPC19 = 0x866
                    0x0866                  _IPC19 = 0x866
                    0x0866                  _IPC19bits = 0x866
                    0x086e                  IPC23 = 0x86e
                    0x086e                  _IPC23 = 0x86e
                    0x086e                  _IPC23bits = 0x86e
                    0x0870                  IPC24 = 0x870
                    0x0870                  _IPC24 = 0x870
                    0x0870                  _IPC24bits = 0x870
                    0x0886                  IPC35 = 0x886
                    0x0886                  _IPC35 = 0x886
                    0x0886                  _IPC35bits = 0x886
                    0x0888                  IPC36 = 0x888
                    0x0888                  _IPC36 = 0x888
                    0x0888                  _IPC36bits = 0x888
                    0x088a                  IPC37 = 0x88a
                    0x088a                  _IPC37 = 0x88a
                    0x088a                  _IPC37bits = 0x88a
                    0x08c0                  INTCON1 = 0x8c0
                    0x08c0                  _INTCON1 = 0x8c0
                    0x08c0                  _INTCON1bits = 0x8c0
                    0x08c2                  INTCON2 = 0x8c2
                    0x08c2                  _INTCON2 = 0x8c2
                    0x08c2                  _INTCON2bits = 0x8c2
                    0x08c4                  INTCON3 = 0x8c4
                    0x08c4                  _INTCON3 = 0x8c4
                    0x08c4                  _INTCON3bits = 0x8c4
                    0x08c6                  INTCON4 = 0x8c6
                    0x08c6                  _INTCON4 = 0x8c6
                    0x08c6                  _INTCON4bits = 0x8c6
                    0x08c8                  INTTREG = 0x8c8
                    0x08c8                  _INTTREG = 0x8c8
                    0x08c8                  _INTTREGbits = 0x8c8
                    0x0900                  OC1CON1 = 0x900
                    0x0900                  _OC1CON1 = 0x900
                    0x0900                  _OC1CON1bits = 0x900
                    0x0902                  OC1CON2 = 0x902
                    0x0902                  _OC1CON2 = 0x902
                    0x0902                  _OC1CON2bits = 0x902
                    0x0904                  OC1RS = 0x904
                    0x0904                  _OC1RS = 0x904
                    0x0906                  OC1R = 0x906
                    0x0906                  _OC1R = 0x906
                    0x0908                  OC1TMR = 0x908
                    0x0908                  _OC1TMR = 0x908
                    0x090a                  OC2CON1 = 0x90a
                    0x090a                  _OC2CON1 = 0x90a
                    0x090a                  _OC2CON1bits = 0x90a
                    0x090c                  OC2CON2 = 0x90c
                    0x090c                  _OC2CON2 = 0x90c
                    0x090c                  _OC2CON2bits = 0x90c
                    0x090e                  OC2RS = 0x90e
                    0x090e                  _OC2RS = 0x90e
                    0x0910                  OC2R = 0x910
                    0x0910                  _OC2R = 0x910
                    0x0912                  OC2TMR = 0x912
                    0x0912                  _OC2TMR = 0x912
                    0x0914                  OC3CON1 = 0x914
                    0x0914                  _OC3CON1 = 0x914
                    0x0914                  _OC3CON1bits = 0x914
                    0x0916                  OC3CON2 = 0x916
                    0x0916                  _OC3CON2 = 0x916
                    0x0916                  _OC3CON2bits = 0x916
                    0x0918                  OC3RS = 0x918
                    0x0918                  _OC3RS = 0x918
                    0x091a                  OC3R = 0x91a
                    0x091a                  _OC3R = 0x91a
                    0x091c                  OC3TMR = 0x91c
                    0x091c                  _OC3TMR = 0x91c
                    0x091e                  OC4CON1 = 0x91e
                    0x091e                  _OC4CON1 = 0x91e
                    0x091e                  _OC4CON1bits = 0x91e
                    0x0920                  OC4CON2 = 0x920
                    0x0920                  _OC4CON2 = 0x920
                    0x0920                  _OC4CON2bits = 0x920
                    0x0922                  OC4RS = 0x922
                    0x0922                  _OC4RS = 0x922
                    0x0924                  OC4R = 0x924
                    0x0924                  _OC4R = 0x924
                    0x0926                  OC4TMR = 0x926
                    0x0926                  _OC4TMR = 0x926
                    0x0a80                  CMSTAT = 0xa80
                    0x0a80                  _CMSTAT = 0xa80
                    0x0a80                  _CMSTATbits = 0xa80
                    0x0a82                  CVRCON = 0xa82
                    0x0a82                  _CVRCON = 0xa82
                    0x0a82                  _CVRCONbits = 0xa82
                    0x0a84                  CM1CON = 0xa84
                    0x0a84                  _CM1CON = 0xa84
                    0x0a84                  _CM1CONbits = 0xa84
                    0x0a86                  CM1MSKSRC = 0xa86
                    0x0a86                  _CM1MSKSRC = 0xa86
                    0x0a86                  _CM1MSKSRCbits = 0xa86
                    0x0a88                  CM1MSKCON = 0xa88
                    0x0a88                  _CM1MSKCON = 0xa88
                    0x0a88                  _CM1MSKCONbits = 0xa88
                    0x0a8a                  CM1FLTR = 0xa8a
                    0x0a8a                  _CM1FLTR = 0xa8a
                    0x0a8a                  _CM1FLTRbits = 0xa8a
                    0x0a8c                  CM2CON = 0xa8c
                    0x0a8c                  _CM2CON = 0xa8c
                    0x0a8c                  _CM2CONbits = 0xa8c
                    0x0a8e                  CM2MSKSRC = 0xa8e
                    0x0a8e                  _CM2MSKSRC = 0xa8e
                    0x0a8e                  _CM2MSKSRCbits = 0xa8e
                    0x0a90                  CM2MSKCON = 0xa90
                    0x0a90                  _CM2MSKCON = 0xa90
                    0x0a90                  _CM2MSKCONbits = 0xa90
                    0x0a92                  CM2FLTR = 0xa92
                    0x0a92                  _CM2FLTR = 0xa92
                    0x0a92                  _CM2FLTRbits = 0xa92
                    0x0a94                  CM3CON = 0xa94
                    0x0a94                  _CM3CON = 0xa94
                    0x0a94                  _CM3CONbits = 0xa94
                    0x0a96                  CM3MSKSRC = 0xa96
                    0x0a96                  _CM3MSKSRC = 0xa96
                    0x0a96                  _CM3MSKSRCbits = 0xa96
                    0x0a98                  CM3MSKCON = 0xa98
                    0x0a98                  _CM3MSKCON = 0xa98
                    0x0a98                  _CM3MSKCONbits = 0xa98
                    0x0a9a                  CM3FLTR = 0xa9a
                    0x0a9a                  _CM3FLTR = 0xa9a
                    0x0a9a                  _CM3FLTRbits = 0xa9a
                    0x0a9c                  CM4CON = 0xa9c
                    0x0a9c                  _CM4CON = 0xa9c
                    0x0a9c                  _CM4CONbits = 0xa9c
                    0x0a9e                  CM4MSKSRC = 0xa9e
                    0x0a9e                  _CM4MSKSRC = 0xa9e
                    0x0a9e                  _CM4MSKSRCbits = 0xa9e
                    0x0aa0                  CM4MSKCON = 0xaa0
                    0x0aa0                  _CM4MSKCON = 0xaa0
                    0x0aa0                  _CM4MSKCONbits = 0xaa0
                    0x0aa2                  CM4FLTR = 0xaa2
                    0x0aa2                  _CM4FLTR = 0xaa2
                    0x0aa2                  _CM4FLTRbits = 0xaa2
                    0x0ac0                  PTGCST = 0xac0
                    0x0ac0                  _PTGCST = 0xac0
                    0x0ac0                  _PTGCSTbits = 0xac0
                    0x0ac2                  PTGCON = 0xac2
                    0x0ac2                  _PTGCON = 0xac2
                    0x0ac2                  _PTGCONbits = 0xac2
                    0x0ac4                  PTGBTE = 0xac4
                    0x0ac4                  _PTGBTE = 0xac4
                    0x0ac4                  _PTGBTEbits = 0xac4
                    0x0ac6                  PTGHOLD = 0xac6
                    0x0ac6                  _PTGHOLD = 0xac6
                    0x0ac8                  PTGT0LIM = 0xac8
                    0x0ac8                  _PTGT0LIM = 0xac8
                    0x0aca                  PTGT1LIM = 0xaca
                    0x0aca                  _PTGT1LIM = 0xaca
                    0x0acc                  PTGSDLIM = 0xacc
                    0x0acc                  _PTGSDLIM = 0xacc
                    0x0ace                  PTGC0LIM = 0xace
                    0x0ace                  _PTGC0LIM = 0xace
                    0x0ad0                  PTGC1LIM = 0xad0
                    0x0ad0                  _PTGC1LIM = 0xad0
                    0x0ad2                  PTGADJ = 0xad2
                    0x0ad2                  _PTGADJ = 0xad2
                    0x0ad4                  PTGL0 = 0xad4
                    0x0ad4                  _PTGL0 = 0xad4
                    0x0ad6                  PTGQPTR = 0xad6
                    0x0ad6                  _PTGQPTR = 0xad6
                    0x0ad6                  _PTGQPTRbits = 0xad6
                    0x0ad8                  PTGQUE0 = 0xad8
                    0x0ad8                  _PTGQUE0 = 0xad8
                    0x0ad8                  _PTGQUE0bits = 0xad8
                    0x0ada                  PTGQUE1 = 0xada
                    0x0ada                  _PTGQUE1 = 0xada
                    0x0ada                  _PTGQUE1bits = 0xada
                    0x0adc                  PTGQUE2 = 0xadc
                    0x0adc                  _PTGQUE2 = 0xadc
                    0x0adc                  _PTGQUE2bits = 0xadc
                    0x0ade                  PTGQUE3 = 0xade
                    0x0ade                  _PTGQUE3 = 0xade
                    0x0ade                  _PTGQUE3bits = 0xade
                    0x0ae0                  PTGQUE4 = 0xae0
                    0x0ae0                  _PTGQUE4 = 0xae0
                    0x0ae0                  _PTGQUE4bits = 0xae0
                    0x0ae2                  PTGQUE5 = 0xae2
                    0x0ae2                  _PTGQUE5 = 0xae2
                    0x0ae2                  _PTGQUE5bits = 0xae2
                    0x0ae4                  PTGQUE6 = 0xae4
                    0x0ae4                  _PTGQUE6 = 0xae4
                    0x0ae4                  _PTGQUE6bits = 0xae4
                    0x0ae6                  PTGQUE7 = 0xae6
                    0x0ae6                  _PTGQUE7 = 0xae6
                    0x0ae6                  _PTGQUE7bits = 0xae6
                    0x0b00                  DMA0CON = 0xb00
                    0x0b00                  _DMA0CON = 0xb00
                    0x0b00                  _DMA0CONbits = 0xb00
                    0x0b02                  DMA0REQ = 0xb02
                    0x0b02                  _DMA0REQ = 0xb02
                    0x0b02                  _DMA0REQbits = 0xb02
                    0x0b04                  DMA0STAL = 0xb04
                    0x0b04                  _DMA0STAL = 0xb04
                    0x0b06                  DMA0STAH = 0xb06
                    0x0b06                  _DMA0STAH = 0xb06
                    0x0b06                  _DMA0STAHbits = 0xb06
                    0x0b08                  DMA0STBL = 0xb08
                    0x0b08                  _DMA0STBL = 0xb08
                    0x0b0a                  DMA0STBH = 0xb0a
                    0x0b0a                  _DMA0STBH = 0xb0a
                    0x0b0a                  _DMA0STBHbits = 0xb0a
                    0x0b0c                  DMA0PAD = 0xb0c
                    0x0b0c                  _DMA0PAD = 0xb0c
                    0x0b0e                  DMA0CNT = 0xb0e
                    0x0b0e                  _DMA0CNT = 0xb0e
                    0x0b0e                  _DMA0CNTbits = 0xb0e
                    0x0b10                  DMA1CON = 0xb10
                    0x0b10                  _DMA1CON = 0xb10
                    0x0b10                  _DMA1CONbits = 0xb10
                    0x0b12                  DMA1REQ = 0xb12
                    0x0b12                  _DMA1REQ = 0xb12
                    0x0b12                  _DMA1REQbits = 0xb12
                    0x0b14                  DMA1STAL = 0xb14
                    0x0b14                  _DMA1STAL = 0xb14
                    0x0b16                  DMA1STAH = 0xb16
                    0x0b16                  _DMA1STAH = 0xb16
                    0x0b16                  _DMA1STAHbits = 0xb16
                    0x0b18                  DMA1STBL = 0xb18
                    0x0b18                  _DMA1STBL = 0xb18
                    0x0b1a                  DMA1STBH = 0xb1a
                    0x0b1a                  _DMA1STBH = 0xb1a
                    0x0b1a                  _DMA1STBHbits = 0xb1a
                    0x0b1c                  DMA1PAD = 0xb1c
                    0x0b1c                  _DMA1PAD = 0xb1c
                    0x0b1e                  DMA1CNT = 0xb1e
                    0x0b1e                  _DMA1CNT = 0xb1e
                    0x0b1e                  _DMA1CNTbits = 0xb1e
                    0x0b20                  DMA2CON = 0xb20
                    0x0b20                  _DMA2CON = 0xb20
                    0x0b20                  _DMA2CONbits = 0xb20
                    0x0b22                  DMA2REQ = 0xb22
                    0x0b22                  _DMA2REQ = 0xb22
                    0x0b22                  _DMA2REQbits = 0xb22
                    0x0b24                  DMA2STAL = 0xb24
                    0x0b24                  _DMA2STAL = 0xb24
                    0x0b26                  DMA2STAH = 0xb26
                    0x0b26                  _DMA2STAH = 0xb26
                    0x0b26                  _DMA2STAHbits = 0xb26
                    0x0b28                  DMA2STBL = 0xb28
                    0x0b28                  _DMA2STBL = 0xb28
                    0x0b2a                  DMA2STBH = 0xb2a
                    0x0b2a                  _DMA2STBH = 0xb2a
                    0x0b2a                  _DMA2STBHbits = 0xb2a
                    0x0b2c                  DMA2PAD = 0xb2c
                    0x0b2c                  _DMA2PAD = 0xb2c
                    0x0b2e                  DMA2CNT = 0xb2e
                    0x0b2e                  _DMA2CNT = 0xb2e
                    0x0b2e                  _DMA2CNTbits = 0xb2e
                    0x0b30                  DMA3CON = 0xb30
                    0x0b30                  _DMA3CON = 0xb30
                    0x0b30                  _DMA3CONbits = 0xb30
                    0x0b32                  DMA3REQ = 0xb32
                    0x0b32                  _DMA3REQ = 0xb32
                    0x0b32                  _DMA3REQbits = 0xb32
                    0x0b34                  DMA3STAL = 0xb34
                    0x0b34                  _DMA3STAL = 0xb34
                    0x0b36                  DMA3STAH = 0xb36
                    0x0b36                  _DMA3STAH = 0xb36
                    0x0b36                  _DMA3STAHbits = 0xb36
                    0x0b38                  DMA3STBL = 0xb38
                    0x0b38                  _DMA3STBL = 0xb38
                    0x0b3a                  DMA3STBH = 0xb3a
                    0x0b3a                  _DMA3STBH = 0xb3a
                    0x0b3a                  _DMA3STBHbits = 0xb3a
                    0x0b3c                  DMA3PAD = 0xb3c
                    0x0b3c                  _DMA3PAD = 0xb3c
                    0x0b3e                  DMA3CNT = 0xb3e
                    0x0b3e                  _DMA3CNT = 0xb3e
                    0x0b3e                  _DMA3CNTbits = 0xb3e
                    0x0bf0                  DMAPWC = 0xbf0
                    0x0bf0                  _DMAPWC = 0xbf0
                    0x0bf0                  _DMAPWCbits = 0xbf0
                    0x0bf2                  DMARQC = 0xbf2
                    0x0bf2                  _DMARQC = 0xbf2
                    0x0bf2                  _DMARQCbits = 0xbf2
                    0x0bf4                  DMAPPS = 0xbf4
                    0x0bf4                  _DMAPPS = 0xbf4
                    0x0bf4                  _DMAPPSbits = 0xbf4
                    0x0bf6                  DMALCA = 0xbf6
                    0x0bf6                  _DMALCA = 0xbf6
                    0x0bf6                  _DMALCAbits = 0xbf6
                    0x0bf8                  DSADRL = 0xbf8
                    0x0bf8                  _DSADRL = 0xbf8
                    0x0bfa                  DSADRH = 0xbfa
                    0x0bfa                  _DSADRH = 0xbfa
                    0x0bfa                  _DSADRHbits = 0xbfa
                    0x0c00                  PTCON = 0xc00
                    0x0c00                  _PTCON = 0xc00
                    0x0c00                  _PTCONbits = 0xc00
                    0x0c02                  PTCON2 = 0xc02
                    0x0c02                  _PTCON2 = 0xc02
                    0x0c02                  _PTCON2bits = 0xc02
                    0x0c04                  PTPER = 0xc04
                    0x0c04                  _PTPER = 0xc04
                    0x0c06                  SEVTCMP = 0xc06
                    0x0c06                  _SEVTCMP = 0xc06
                    0x0c0a                  MDC = 0xc0a
                    0x0c0a                  _MDC = 0xc0a
                    0x0c1a                  CHOP = 0xc1a
                    0x0c1a                  _CHOP = 0xc1a
                    0x0c1a                  _CHOPbits = 0xc1a
                    0x0c1e                  PWMKEY = 0xc1e
                    0x0c1e                  _PWMKEY = 0xc1e
                    0x0c20                  PWMCON1 = 0xc20
                    0x0c20                  _PWMCON1 = 0xc20
                    0x0c20                  _PWMCON1bits = 0xc20
                    0x0c22                  IOCON1 = 0xc22
                    0x0c22                  _IOCON1 = 0xc22
                    0x0c22                  _IOCON1bits = 0xc22
                    0x0c24                  FCLCON1 = 0xc24
                    0x0c24                  _FCLCON1 = 0xc24
                    0x0c24                  _FCLCON1bits = 0xc24
                    0x0c26                  PDC1 = 0xc26
                    0x0c26                  _PDC1 = 0xc26
                    0x0c28                  PHASE1 = 0xc28
                    0x0c28                  _PHASE1 = 0xc28
                    0x0c2a                  DTR1 = 0xc2a
                    0x0c2a                  _DTR1 = 0xc2a
                    0x0c2c                  ALTDTR1 = 0xc2c
                    0x0c2c                  _ALTDTR1 = 0xc2c
                    0x0c32                  TRIG1 = 0xc32
                    0x0c32                  _TRIG1 = 0xc32
                    0x0c32                  _TRIG1bits = 0xc32
                    0x0c34                  TRGCON1 = 0xc34
                    0x0c34                  _TRGCON1 = 0xc34
                    0x0c34                  _TRGCON1bits = 0xc34
                    0x0c3a                  LEBCON1 = 0xc3a
                    0x0c3a                  _LEBCON1 = 0xc3a
                    0x0c3a                  _LEBCON1bits = 0xc3a
                    0x0c3c                  LEBDLY1 = 0xc3c
                    0x0c3c                  _LEBDLY1 = 0xc3c
                    0x0c3c                  _LEBDLY1bits = 0xc3c
                    0x0c3e                  AUXCON1 = 0xc3e
                    0x0c3e                  _AUXCON1 = 0xc3e
                    0x0c3e                  _AUXCON1bits = 0xc3e
                    0x0c40                  PWMCON2 = 0xc40
                    0x0c40                  _PWMCON2 = 0xc40
                    0x0c40                  _PWMCON2bits = 0xc40
                    0x0c42                  IOCON2 = 0xc42
                    0x0c42                  _IOCON2 = 0xc42
                    0x0c42                  _IOCON2bits = 0xc42
                    0x0c44                  FCLCON2 = 0xc44
                    0x0c44                  _FCLCON2 = 0xc44
                    0x0c44                  _FCLCON2bits = 0xc44
                    0x0c46                  PDC2 = 0xc46
                    0x0c46                  _PDC2 = 0xc46
                    0x0c48                  PHASE2 = 0xc48
                    0x0c48                  _PHASE2 = 0xc48
                    0x0c4a                  DTR2 = 0xc4a
                    0x0c4a                  _DTR2 = 0xc4a
                    0x0c4c                  ALTDTR2 = 0xc4c
                    0x0c4c                  _ALTDTR2 = 0xc4c
                    0x0c52                  TRIG2 = 0xc52
                    0x0c52                  _TRIG2 = 0xc52
                    0x0c52                  _TRIG2bits = 0xc52
                    0x0c54                  TRGCON2 = 0xc54
                    0x0c54                  _TRGCON2 = 0xc54
                    0x0c54                  _TRGCON2bits = 0xc54
                    0x0c5a                  LEBCON2 = 0xc5a
                    0x0c5a                  _LEBCON2 = 0xc5a
                    0x0c5a                  _LEBCON2bits = 0xc5a
                    0x0c5c                  LEBDLY2 = 0xc5c
                    0x0c5c                  _LEBDLY2 = 0xc5c
                    0x0c5c                  _LEBDLY2bits = 0xc5c
                    0x0c5e                  AUXCON2 = 0xc5e
                    0x0c5e                  _AUXCON2 = 0xc5e
                    0x0c5e                  _AUXCON2bits = 0xc5e
                    0x0c60                  PWMCON3 = 0xc60
                    0x0c60                  _PWMCON3 = 0xc60
                    0x0c60                  _PWMCON3bits = 0xc60
                    0x0c62                  IOCON3 = 0xc62
                    0x0c62                  _IOCON3 = 0xc62
                    0x0c62                  _IOCON3bits = 0xc62
                    0x0c64                  FCLCON3 = 0xc64
                    0x0c64                  _FCLCON3 = 0xc64
                    0x0c64                  _FCLCON3bits = 0xc64
                    0x0c66                  PDC3 = 0xc66
                    0x0c66                  _PDC3 = 0xc66
                    0x0c68                  PHASE3 = 0xc68
                    0x0c68                  _PHASE3 = 0xc68
                    0x0c6a                  DTR3 = 0xc6a
                    0x0c6a                  _DTR3 = 0xc6a
                    0x0c6c                  ALTDTR3 = 0xc6c
                    0x0c6c                  _ALTDTR3 = 0xc6c
                    0x0c72                  TRIG3 = 0xc72
                    0x0c72                  _TRIG3 = 0xc72
                    0x0c72                  _TRIG3bits = 0xc72
                    0x0c74                  TRGCON3 = 0xc74
                    0x0c74                  _TRGCON3 = 0xc74
                    0x0c74                  _TRGCON3bits = 0xc74
                    0x0c7a                  LEBCON3 = 0xc7a
                    0x0c7a                  _LEBCON3 = 0xc7a
                    0x0c7a                  _LEBCON3bits = 0xc7a
                    0x0c7c                  LEBDLY3 = 0xc7c
                    0x0c7c                  _LEBDLY3 = 0xc7c
                    0x0c7c                  _LEBDLY3bits = 0xc7c
                    0x0c7e                  AUXCON3 = 0xc7e
                    0x0c7e                  _AUXCON3 = 0xc7e
                    0x0c7e                  _AUXCON3bits = 0xc7e
                    0x0e00                  TRISA = 0xe00
                    0x0e00                  _TRISA = 0xe00
                    0x0e00                  _TRISAbits = 0xe00
                    0x0e02                  PORTA = 0xe02
                    0x0e02                  _PORTA = 0xe02
                    0x0e02                  _PORTAbits = 0xe02
                    0x0e04                  LATA = 0xe04
                    0x0e04                  _LATA = 0xe04
                    0x0e04                  _LATAbits = 0xe04
                    0x0e06                  ODCA = 0xe06
                    0x0e06                  _ODCA = 0xe06
                    0x0e06                  _ODCAbits = 0xe06
                    0x0e08                  CNENA = 0xe08
                    0x0e08                  _CNENA = 0xe08
                    0x0e08                  _CNENAbits = 0xe08
                    0x0e0a                  CNPUA = 0xe0a
                    0x0e0a                  _CNPUA = 0xe0a
                    0x0e0a                  _CNPUAbits = 0xe0a
                    0x0e0c                  CNPDA = 0xe0c
                    0x0e0c                  _CNPDA = 0xe0c
                    0x0e0c                  _CNPDAbits = 0xe0c
                    0x0e0e                  ANSELA = 0xe0e
                    0x0e0e                  _ANSELA = 0xe0e
                    0x0e0e                  _ANSELAbits = 0xe0e
                    0x0e10                  TRISB = 0xe10
                    0x0e10                  _TRISB = 0xe10
                    0x0e10                  _TRISBbits = 0xe10
                    0x0e12                  PORTB = 0xe12
                    0x0e12                  _PORTB = 0xe12
                    0x0e12                  _PORTBbits = 0xe12
                    0x0e14                  LATB = 0xe14
                    0x0e14                  _LATB = 0xe14
                    0x0e14                  _LATBbits = 0xe14
                    0x0e16                  ODCB = 0xe16
                    0x0e16                  _ODCB = 0xe16
                    0x0e16                  _ODCBbits = 0xe16
                    0x0e18                  CNENB = 0xe18
                    0x0e18                  _CNENB = 0xe18
                    0x0e18                  _CNENBbits = 0xe18
                    0x0e1a                  CNPUB = 0xe1a
                    0x0e1a                  _CNPUB = 0xe1a
                    0x0e1a                  _CNPUBbits = 0xe1a
                    0x0e1c                  CNPDB = 0xe1c
                    0x0e1c                  _CNPDB = 0xe1c
                    0x0e1c                  _CNPDBbits = 0xe1c
                    0x0e1e                  ANSELB = 0xe1e
                    0x0e1e                  _ANSELB = 0xe1e
                    0x0e1e                  _ANSELBbits = 0xe1e
                    0x0e20                  TRISC = 0xe20
                    0x0e20                  _TRISC = 0xe20
                    0x0e20                  _TRISCbits = 0xe20
                    0x0e22                  PORTC = 0xe22
                    0x0e22                  _PORTC = 0xe22
                    0x0e22                  _PORTCbits = 0xe22
                    0x0e24                  LATC = 0xe24
                    0x0e24                  _LATC = 0xe24
                    0x0e24                  _LATCbits = 0xe24
                    0x0e26                  ODCC = 0xe26
                    0x0e26                  _ODCC = 0xe26
                    0x0e26                  _ODCCbits = 0xe26
                    0x0e28                  CNENC = 0xe28
                    0x0e28                  _CNENC = 0xe28
                    0x0e28                  _CNENCbits = 0xe28
                    0x0e2a                  CNPUC = 0xe2a
                    0x0e2a                  _CNPUC = 0xe2a
                    0x0e2a                  _CNPUCbits = 0xe2a
                    0x0e2c                  CNPDC = 0xe2c
                    0x0e2c                  _CNPDC = 0xe2c
                    0x0e2c                  _CNPDCbits = 0xe2c
                    0x0e2e                  ANSELC = 0xe2e
                    0x0e2e                  _ANSELC = 0xe2e
                    0x0e2e                  _ANSELCbits = 0xe2e
                    0x0e30                  TRISD = 0xe30
                    0x0e30                  _TRISD = 0xe30
                    0x0e30                  _TRISDbits = 0xe30
                    0x0e32                  PORTD = 0xe32
                    0x0e32                  _PORTD = 0xe32
                    0x0e32                  _PORTDbits = 0xe32
                    0x0e34                  LATD = 0xe34
                    0x0e34                  _LATD = 0xe34
                    0x0e34                  _LATDbits = 0xe34
                    0x0e36                  ODCD = 0xe36
                    0x0e36                  _ODCD = 0xe36
                    0x0e36                  _ODCDbits = 0xe36
                    0x0e38                  CNEND = 0xe38
                    0x0e38                  _CNEND = 0xe38
                    0x0e38                  _CNENDbits = 0xe38
                    0x0e3a                  CNPUD = 0xe3a
                    0x0e3a                  _CNPUD = 0xe3a
                    0x0e3a                  _CNPUDbits = 0xe3a
                    0x0e3c                  CNPDD = 0xe3c
                    0x0e3c                  _CNPDD = 0xe3c
                    0x0e3c                  _CNPDDbits = 0xe3c
                    0x0e40                  TRISE = 0xe40
                    0x0e40                  _TRISE = 0xe40
                    0x0e40                  _TRISEbits = 0xe40
                    0x0e42                  PORTE = 0xe42
                    0x0e42                  _PORTE = 0xe42
                    0x0e42                  _PORTEbits = 0xe42
                    0x0e44                  LATE = 0xe44
                    0x0e44                  _LATE = 0xe44
                    0x0e44                  _LATEbits = 0xe44
                    0x0e46                  ODCE = 0xe46
                    0x0e46                  _ODCE = 0xe46
                    0x0e46                  _ODCEbits = 0xe46
                    0x0e48                  CNENE = 0xe48
                    0x0e48                  _CNENE = 0xe48
                    0x0e48                  _CNENEbits = 0xe48
                    0x0e4a                  CNPUE = 0xe4a
                    0x0e4a                  _CNPUE = 0xe4a
                    0x0e4a                  _CNPUEbits = 0xe4a
                    0x0e4c                  CNPDE = 0xe4c
                    0x0e4c                  _CNPDE = 0xe4c
                    0x0e4c                  _CNPDEbits = 0xe4c
                    0x0e4e                  ANSELE = 0xe4e
                    0x0e4e                  _ANSELE = 0xe4e
                    0x0e4e                  _ANSELEbits = 0xe4e
                    0x0e50                  TRISF = 0xe50
                    0x0e50                  _TRISF = 0xe50
                    0x0e50                  _TRISFbits = 0xe50
                    0x0e52                  PORTF = 0xe52
                    0x0e52                  _PORTF = 0xe52
                    0x0e52                  _PORTFbits = 0xe52
                    0x0e54                  LATF = 0xe54
                    0x0e54                  _LATF = 0xe54
                    0x0e54                  _LATFbits = 0xe54
                    0x0e56                  ODCF = 0xe56
                    0x0e56                  _ODCF = 0xe56
                    0x0e56                  _ODCFbits = 0xe56
                    0x0e58                  CNENF = 0xe58
                    0x0e58                  _CNENF = 0xe58
                    0x0e58                  _CNENFbits = 0xe58
                    0x0e5a                  CNPUF = 0xe5a
                    0x0e5a                  _CNPUF = 0xe5a
                    0x0e5a                  _CNPUFbits = 0xe5a
                    0x0e5c                  CNPDF = 0xe5c
                    0x0e5c                  _CNPDF = 0xe5c
                    0x0e5c                  _CNPDFbits = 0xe5c
                    0x0e60                  TRISG = 0xe60
                    0x0e60                  _TRISG = 0xe60
                    0x0e60                  _TRISGbits = 0xe60
                    0x0e62                  PORTG = 0xe62
                    0x0e62                  _PORTG = 0xe62
                    0x0e62                  _PORTGbits = 0xe62
                    0x0e64                  LATG = 0xe64
                    0x0e64                  _LATG = 0xe64
                    0x0e64                  _LATGbits = 0xe64
                    0x0e66                  ODCG = 0xe66
                    0x0e66                  _ODCG = 0xe66
                    0x0e66                  _ODCGbits = 0xe66
                    0x0e68                  CNENG = 0xe68
                    0x0e68                  _CNENG = 0xe68
                    0x0e68                  _CNENGbits = 0xe68
                    0x0e6a                  CNPUG = 0xe6a
                    0x0e6a                  _CNPUG = 0xe6a
                    0x0e6a                  _CNPUGbits = 0xe6a
                    0x0e6c                  CNPDG = 0xe6c
                    0x0e6c                  _CNPDG = 0xe6c
                    0x0e6c                  _CNPDGbits = 0xe6c
                    0x0fa0                  _APPO = 0xfa0
                    0x0fa0                  __APPO = 0xfa0
                    0x0fa2                  _APPIN = 0xfa2
                    0x0fa2                  __APPIN = 0xfa2
                    0x0fa4                  APPS = 0xfa4
                    0x0fa4                  _APPS = 0xfa4
                    0x0fa4                  _APPSbits = 0xfa4
                    0x0fa6                  STROUTL = 0xfa6
                    0x0fa6                  _STROUTL = 0xfa6
                    0x0fa8                  STROUTH = 0xfa8
                    0x0fa8                  _STROUTH = 0xfa8
                    0x0faa                  STROVCNT = 0xfaa
                    0x0faa                  _STROVCNT = 0xfaa
                    0x0ff0                  JDATAH = 0xff0
                    0x0ff0                  _JDATAH = 0xff0
                    0x0ff2                  JDATAL = 0xff2
                    0x0ff2                  _JDATAL = 0xff2
                    0x0022                  ACCA = 0x22
                    0x0022                  _ACCA = 0x22
                    0x0028                  ACCB = 0x28
                    0x0028                  _ACCB = 0x28
                    0x0440                  CAN1 = 0x440
                    0x0440                  _CAN1 = 0x440
                    0x0144                  IC1 = 0x144
                    0x0144                  _IC1 = 0x144
                    0x014c                  IC2 = 0x14c
                    0x014c                  _IC2 = 0x14c
                    0x0154                  IC3 = 0x154
                    0x0154                  _IC3 = 0x154
                    0x015c                  IC4 = 0x15c
                    0x015c                  _IC4 = 0x15c
                    0x0904                  OC1 = 0x904
                    0x0904                  _OC1 = 0x904
                    0x090e                  OC2 = 0x90e
                    0x090e                  _OC2 = 0x90e
                    0x0918                  OC3 = 0x918
                    0x0918                  _OC3 = 0x918
                    0x0922                  OC4 = 0x922
                    0x0922                  _OC4 = 0x922
                    0x0240                  SPI1 = 0x240
                    0x0240                  _SPI1 = 0x240
                    0x0260                  SPI2 = 0x260
                    0x0260                  _SPI2 = 0x260
                    0x0220                  UART1 = 0x220
                    0x0220                  _UART1 = 0x220
                    0x0230                  UART2 = 0x230
                    0x0230                  _UART2 = 0x230
START GROUP
LOAD c:/program files/microchip/xc-dsc/v3.21/bin/bin/../../lib\libc99-pic30-elf.a
LOAD c:/program files/microchip/xc-dsc/v3.21/bin/bin/../../lib\libm-elf.a
LOAD c:/program files/microchip/xc-dsc/v3.21/bin/bin/../../lib\libc99-elf.a
END GROUP
OUTPUT(dist/default/production/sample-mb-33ep256mc506-mclv2.X.production.elf elf32-pic30)
LOAD /CW/_FGS
LOAD jump_table
LOAD data_init

__c30_signature
                    0x0000        0x168
 __c30_signature
                    0x0000          0x6 build/default/production/mcc_generated_files/tmr1.o
 __c30_signature
                    0x0006          0x6 build/default/production/mcc_generated_files/uart1.o
 __c30_signature
                    0x000c          0x6 build/default/production/mcc_generated_files/tmr2.o
 __c30_signature
                    0x0012          0x6 build/default/production/mcc_generated_files/system.o
 __c30_signature
                    0x0018          0x6 build/default/production/mcc_generated_files/adc1.o
 __c30_signature
                    0x001e          0x6 build/default/production/mcc_generated_files/clock.o
 __c30_signature
                    0x0024          0x6 build/default/production/mcc_generated_files/interrupt_manager.o
 __c30_signature
                    0x002a          0x6 build/default/production/mcc_generated_files/pwm.o
 __c30_signature
                    0x0030          0x6 build/default/production/mcc_generated_files/traps.o
 __c30_signature
                    0x0036          0x6 build/default/production/mcc_generated_files/pin_manager.o
 __c30_signature
                    0x003c          0x6 build/default/production/main.o
 __c30_signature
                    0x0042          0x6 build/default/production/mcc_generated_files/motorBench/test_harness.o
 __c30_signature
                    0x0048          0x6 build/default/production/mcc_generated_files/motorBench/stall_detect.o
 __c30_signature
                    0x004e          0x6 build/default/production/mcc_generated_files/motorBench/mcaf_main.o
 __c30_signature
                    0x0054          0x6 build/default/production/mcc_generated_files/motorBench/startup.o
 __c30_signature
                    0x005a          0x6 build/default/production/mcc_generated_files/motorBench/hal/mcaf_pin_manager.o
 __c30_signature
                    0x0060          0x6 build/default/production/mcc_generated_files/motorBench/fault_handle.o
 __c30_signature
                    0x0066          0x6 build/default/production/mcc_generated_files/motorBench/mcaf_sample_application.o
 __c30_signature
                    0x006c          0x6 build/default/production/mcc_generated_files/motorBench/ui.o
 __c30_signature
                    0x0072          0x6 build/default/production/mcc_generated_files/motorBench/monitor.o
 __c30_signature
                    0x0078          0x6 build/default/production/mcc_generated_files/motorBench/isr.o
 __c30_signature
                    0x007e          0x6 build/default/production/mcc_generated_files/motorBench/system_state.o
 __c30_signature
                    0x0084          0x6 build/default/production/mcc_generated_files/motorBench/current_measure.o
 __c30_signature
                    0x008a          0x6 build/default/production/mcc_generated_files/motorBench/board_service.o
 __c30_signature
                    0x0090          0x6 build/default/production/mcc_generated_files/motorBench/foc.o
 __c30_signature
                    0x0096          0x6 build/default/production/mcc_generated_files/motorBench/gate_drive.o
 __c30_signature
                    0x009c          0x6 build/default/production/mcc_generated_files/motorBench/fault_detect.o
 __c30_signature
                    0x00a2          0x6 build/default/production/mcc_generated_files/motorBench/commutation/pll.o
 __c30_signature
                    0x00a8          0x6 build/default/production/mcc_generated_files/motorBench/mcaf_traps.o
 __c30_signature
                    0x00ae          0x6 build/default/production/mcc_generated_files/motorBench/diagnostics.o
 __c30_signature
                    0x00b4          0x6 build/default/production/mcc_generated_files/motorBench/system_init.o
 __c30_signature
                    0x00ba          0x6 build/default/production/mcc_generated_files/motorBench/sat_PI.o
 __c30_signature
                    0x00c0          0x6 build/default/production/mcc_generated_files/motorBench/parameters/init_params.o
 __c30_signature
                    0x00c6          0x6 build/default/production/mcc_generated_files/motorBench/recover.o
 __c30_signature
                    0x00cc          0x6 build/default/production/mcc_generated_files/motorBench/state_machine.o
 __c30_signature
                    0x00d2          0x6 build/default/production/mcc_generated_files/motorBench/hal/hardware_access_functions.o
 __c30_signature
                    0x00d8          0x6 build/default/production/mcc_generated_files/motorBench/adc_compensation.o
 __c30_signature
                    0x00de          0x6 build/default/production/mcc_generated_files/motorBench/commutation.o
 __c30_signature
                    0x00e4          0x6 mcc_generated_files\motorBench\library\x2cscope\libx2cscope-dspic-elf.a(generic-16bit-epX2CScopeWrapper.o)
 __c30_signature
                    0x00ea          0x6 mcc_generated_files\motorBench\library\x2cscope\libx2cscope-dspic-elf.a(generic-16dsp-epBlockServicesX2C.o)
 __c30_signature
                    0x00f0          0x6 mcc_generated_files\motorBench\library\x2cscope\libx2cscope-dspic-elf.a(generic-16dsp-epLNet.o)
 __c30_signature
                    0x00f6          0x6 mcc_generated_files\motorBench\library\x2cscope\libx2cscope-dspic-elf.a(generic-16dsp-epSerialGeneric.o)
 __c30_signature
                    0x00fc          0x6 mcc_generated_files\motorBench\library\x2cscope\libx2cscope-dspic-elf.a(generic-16dsp-epServices.o)
 __c30_signature
                    0x0102          0x6 mcc_generated_files\motorBench\library\x2cscope\libx2cscope-dspic-elf.a(generic-16dsp-epTableStruct.o)
 __c30_signature
                    0x0108          0x6 mcc_generated_files\motorBench\library\x2cscope\libx2cscope-dspic-elf.a(generic-16dsp-epVersionInfo.o)
 __c30_signature
                    0x010e          0x6 mcc_generated_files\motorBench\library\x2cscope\libx2cscope-dspic-elf.a(generic-16dsp-epX2C.o)
 __c30_signature
                    0x0114          0x6 mcc_generated_files\motorBench\library\x2cscope\libx2cscope-dspic-elf.a(generic-16bit-epScope_Main.o)
 __c30_signature
                    0x011a          0x6 mcc_generated_files\motorBench\library\x2cscope\libx2cscope-dspic-elf.a(generic-16dsp-epCommonFcts.o)
 __c30_signature
                    0x0120          0x6 c:/program files/microchip/xc-dsc/v3.21/bin/bin/../../lib\libc99-pic30-elf.a(delay32.EPMeo)
 __c30_signature
                    0x0126          0x6 c:/program files/microchip/xc-dsc/v3.21/bin/bin/../../lib\libc99-pic30-elf.a(crt0_extendedep.o)
 __c30_signature
                    0x012c          0x6 c:/program files/microchip/xc-dsc/v3.21/bin/bin/../../lib\libc99-pic30-elf.a(data_init_extended.o)
 __c30_signature
                    0x0132          0x6 c:/program files/microchip/xc-dsc/v3.21/bin/bin/../../lib\libc99-pic30-elf.a(deqltle.EP_o)
 __c30_signature
                    0x0138          0x6 c:/program files/microchip/xc-dsc/v3.21/bin/bin/../../lib\libc99-pic30-elf.a(dgtge.EP_o)
 __c30_signature
                    0x013e          0x6 c:/program files/microchip/xc-dsc/v3.21/bin/bin/../../lib\libc99-pic30-elf.a(feqltle.EP_o)
 __c30_signature
                    0x0144          0x6 c:/program files/microchip/xc-dsc/v3.21/bin/bin/../../lib\libc99-pic30-elf.a(fgtge.EP_o)
 __c30_signature
                    0x014a          0x6 c:/program files/microchip/xc-dsc/v3.21/bin/bin/../../lib\libc99-pic30-elf.a(dcompare.EP_o)
 __c30_signature
                    0x0150          0x6 c:/program files/microchip/xc-dsc/v3.21/bin/bin/../../lib\libc99-pic30-elf.a(dtype.EP_o)
 __c30_signature
                    0x0156          0x6 c:/program files/microchip/xc-dsc/v3.21/bin/bin/../../lib\libc99-pic30-elf.a(fcompare.EP_o)
 __c30_signature
                    0x015c          0x6 c:/program files/microchip/xc-dsc/v3.21/bin/bin/../../lib\libc99-pic30-elf.a(funpack2.EP_o)
 __c30_signature
                    0x0162          0x6 c:/program files/microchip/xc-dsc/v3.21/bin/bin/../../lib\libc99-pic30-elf.a(funpack.EP_o)

diagnostics_cinfo
                    0x0000       0x32e2
 diagnostics_cinfo
                    0x0000       0x32e2 build/default/production/mcc_generated_files/motorBench/metadata/data_model_snapshot.o
                    0x0000                  _MCAF_data_model_snapshot

test_harness_cinfo
                    0x0000         0xd0
 test_harness_cinfo
                    0x0000         0xd0 build/default/production/mcc_generated_files/motorBench/test_harness_timestamps.o
                    0x0000                  _test_harness_timestamps

.nbss               0x1000        0x1e4
 .nbss              0x1000        0x146 mcc_generated_files\motorBench\library\x2cscope\libx2cscope-dspic-elf.a(generic-16bit-epX2CScopeWrapper.o)
                    0x112a                  _TheTableStruct
 .nbss              0x1146         0x5a mcc_generated_files\motorBench\library\x2cscope\libx2cscope-dspic-elf.a(generic-16dsp-epX2C.o)
                    0x1146                  _TScope
 .nbss              0x11a0         0x36 mcc_generated_files\motorBench\library\x2cscope\libx2cscope-dspic-elf.a(generic-16dsp-epServices.o)
 .nbss              0x11d6          0x8 mcc_generated_files\motorBench\library\x2cscope\libx2cscope-dspic-elf.a(generic-16dsp-epLNet.o)
 .nbss              0x11de          0x2 build/default/production/mcc_generated_files/tmr2.o
                    0x11de                  _TMR2_InterruptHandler
 .nbss              0x11e0          0x2 build/default/production/mcc_generated_files/adc1.o
 .nbss              0x11e2          0x2 build/default/production/mcc_generated_files/pwm.o

MCAF_persistent
                    0x11e4          0x2
 MCAF_persistent
                    0x11e4          0x2 build/default/production/mcc_generated_files/motorBench/mcaf_traps.o
                    0x11e4                  _watchdog

.ndata              0x11e6          0x2
 .ndata             0x11e6          0x2 build/default/production/mcc_generated_files/motorBench/mcaf_traps.o

MCAF_persistent
                    0x11e8          0x2
 MCAF_persistent
                    0x11e8          0x2 build/default/production/mcc_generated_files/motorBench/system_init.o

.nbss               0x11ea          0x2
 .nbss              0x11ea          0x2 build/default/production/mcc_generated_files/motorBench/hal/hardware_access_functions.o

.ndata              0x11ec          0x2
 .ndata             0x11ec          0x2 mcc_generated_files\motorBench\library\x2cscope\libx2cscope-dspic-elf.a(generic-16bit-epX2CScopeWrapper.o)
                    0x11ec                  _TableStruct

x2cscope_data_buf
                    0x11ee       0x1324
 x2cscope_data_buf
                    0x11ee       0x1324 build/default/production/mcc_generated_files/motorBench/diagnostics.o

.bss                0x2512        0x3b0
 .bss               0x2512        0x3b0 build/default/production/mcc_generated_files/motorBench/mcaf_main.o
                    0x2512                  _systemData
                    0x2530                  _motor

.sinetbl            0x2900        0x200
 .sinetbl           0x2900        0x200 mcc_generated_files\motorBench\library\mc-library\libmotor_control_dspic-elf.a(mc_sinetable_ram_dspic.33E.o)
                    0x2900                  _MC_SineTableInRam
                    0x2900                  MC_SineTableInRam

.bss                0x28c2         0x3e
 .bss               0x28c2         0x20 build/default/production/mcc_generated_files/traps.o
 .bss               0x28e2          0xe build/default/production/mcc_generated_files/motorBench/mcaf_sample_application.o
                    0x28e2                  _app
 .bss               0x28f0          0xa build/default/production/mcc_generated_files/motorBench/ui.o
 .bss               0x28fa          0x6 build/default/production/mcc_generated_files/motorBench/hal/hardware_access_functions.o
                    0x28fa                  _halData

.bss                0x2b00          0x4
 .bss               0x2b00          0x2 build/default/production/mcc_generated_files/tmr1.o
 .bss               0x2b02          0x2 build/default/production/mcc_generated_files/tmr2.o

.ivt._T2Interrupt
                  0x000022          0x2
 .ivt._T2Interrupt
                  0x000022          0x2 build/default/production/mcc_generated_files/tmr2.o

.config_IESO      0x02aff8          0x2
 .config_IESO     0x02aff8          0x2 build/default/production/mcc_generated_files/system.o

.config_FCKSM     0x02aff6          0x2
 .config_FCKSM    0x02aff6          0x2 build/default/production/mcc_generated_files/system.o

.config_FWDTEN    0x02aff4          0x2
 .config_FWDTEN
                  0x02aff4          0x2 build/default/production/mcc_generated_files/system.o

.config_WDTWIN    0x02aff2          0x2
 .config_WDTWIN
                  0x02aff2          0x2 build/default/production/mcc_generated_files/system.o

.config_JTAGEN    0x02aff0          0x2
 .config_JTAGEN
                  0x02aff0          0x2 build/default/production/mcc_generated_files/system.o

.ivt._AD1Interrupt
                  0x00002e          0x2
 .ivt._AD1Interrupt
                  0x00002e          0x2 build/default/production/mcc_generated_files/adc1.o

.ivt._PWMSpEventMatchInterrupt
                  0x000086          0x2
 .ivt._PWMSpEventMatchInterrupt
                  0x000086          0x2 build/default/production/mcc_generated_files/pwm.o

.ivt._OscillatorFail
                  0x000004          0x2
 .ivt._OscillatorFail
                  0x000004          0x2 build/default/production/mcc_generated_files/traps.o

.ivt._StackError
                  0x00000a          0x2
 .ivt._StackError
                  0x00000a          0x2 build/default/production/mcc_generated_files/traps.o

.ivt._AddressError
                  0x000006          0x2
 .ivt._AddressError
                  0x000006          0x2 build/default/production/mcc_generated_files/traps.o

.ivt._MathError
                  0x00000c          0x2
 .ivt._MathError
                  0x00000c          0x2 build/default/production/mcc_generated_files/traps.o

.ivt._DMACError
                  0x00000e          0x2
 .ivt._DMACError
                  0x00000e          0x2 build/default/production/mcc_generated_files/traps.o

.ivt._HardTrapError
                  0x000008          0x2
 .ivt._HardTrapError
                  0x000008          0x2 build/default/production/mcc_generated_files/traps.o

.ivt._SoftTrapError
                  0x000010          0x2
 .ivt._SoftTrapError
                  0x000010          0x2 build/default/production/mcc_generated_files/traps.o

.ivt._ReservedTrap7
                  0x000012          0x2
 .ivt._ReservedTrap7
                  0x000012          0x2 build/default/production/mcc_generated_files/motorBench/mcaf_traps.o

.const              0x8818         0x34 load address 0x000818  
 .const             0x8818         0x20 mcc_generated_files\motorBench\library\x2cscope\libx2cscope-dspic-elf.a(generic-16dsp-epX2C.o)
                    0x8818                  _parameterIdTable
                    0x8820                  _blockFunctionTable
 .const             0x8838         0x14 build/default/production/mcc_generated_files/motorBench/diagnostics.o
                    0x8838                  _compilationDate

.text             0x00084c        0xf28
 .text            0x00084c        0xf28 mcc_generated_files\motorBench\library\x2cscope\libx2cscope-dspic-elf.a(generic-16bit-epScope_Main.o)
                  0x000b9c                  _Scope_Main_Init
                  0x000c0c                  _Scope_Main_Update
                  0x00100c                  _Scope_Main_Load
                  0x00109a                  _Scope_Main_Save
                  0x001772                  _Scope_Main_GetAddress

.text.MCAF_SystemStateMachine_StepIsr
                  0x001774        0x89e
 .text.MCAF_SystemStateMachine_StepIsr
                  0x001774        0x89e build/default/production/mcc_generated_files/motorBench/state_machine.o
                  0x001774                  _MCAF_SystemStateMachine_StepIsr

.text             0x002012        0x510
 .text            0x002012        0x510 mcc_generated_files\motorBench\library\x2cscope\libx2cscope-dspic-elf.a(generic-16dsp-epServices.o)
                  0x002012                  _sendSvNotAvailable
                  0x002020                  generic-16dsp-epServices.o:_setTargetState
                  0x0020b6                  generic-16dsp-epServices.o:_getTargetState
                  0x0020cc                  generic-16dsp-epServices.o:_saveParameter
                  0x002230                  generic-16dsp-epServices.o:_getDeviceInfo
                  0x002406                  generic-16dsp-epServices.o:_loadParameter
                  0x0024ec                  _sendError
                  0x0024f8                  _initServiceTable
                  0x00250a                  _addCoreServices

.text.MCAF_StallDetect
                  0x002522        0x436
 .text.MCAF_StallDetect
                  0x002522        0x436 build/default/production/mcc_generated_files/motorBench/stall_detect.o
                  0x002522                  _MCAF_StallDetect

.text             0x002958        0x75c
 .text            0x002958        0x418 mcc_generated_files\motorBench\library\x2cscope\libx2cscope-dspic-elf.a(generic-16dsp-epLNet.o)
                  0x002958                  generic-16dsp-epLNet.o:_enableSend
                  0x002962                  generic-16dsp-epLNet.o:_communicate
                  0x002d5a                  _initLNet
 .text            0x002d70        0x344 mcc_generated_files\motorBench\library\x2cscope\libx2cscope-dspic-elf.a(generic-16dsp-epBlockServicesX2C.o)
                  0x002d70                  _putRAMBlock
                  0x002eb6                  _getRAMBlock
                  0x002fa0                  _putBlockData
                  0x003026                  _getBlockData
                  0x00309c                  _addBlockServices
                  0x0030ac                  _addExtendedBlockServices

.text.MCAF_EstimatorPllStep
                  0x0030b4        0x2ee
 .text.MCAF_EstimatorPllStep
                  0x0030b4        0x2ee build/default/production/mcc_generated_files/motorBench/commutation/pll.o
                  0x0030b4                  _MCAF_EstimatorPllStep

.text.MCAF_StartupTransitioningStep
                  0x0033a2        0x290
 .text.MCAF_StartupTransitioningStep
                  0x0033a2        0x290 build/default/production/mcc_generated_files/motorBench/startup.o
                  0x0033a2                  _MCAF_StartupTransitioningStep

.dinit            0x003632        0x1ce
 .dinit           0x003632        0x1ce data_init

.text.MCAF_BootstrapChargeStepIsr
                  0x003800        0x1a2
 .text.MCAF_BootstrapChargeStepIsr
                  0x003800        0x1a2 build/default/production/mcc_generated_files/motorBench/gate_drive.o
                  0x003800                  _MCAF_BootstrapChargeStepIsr

.text.MCAF_VelocityAndCurrentControllerStep
                  0x0039a2        0x19c
 .text.MCAF_VelocityAndCurrentControllerStep
                  0x0039a2        0x19c build/default/production/mcc_generated_files/motorBench/foc.o
                  0x0039a2                  _MCAF_VelocityAndCurrentControllerStep

.text.MCAF_FocStepIsrForwardPath
                  0x003b3e        0x17a
 .text.MCAF_FocStepIsrForwardPath
                  0x003b3e        0x17a build/default/production/mcc_generated_files/motorBench/foc.o
                  0x003b3e                  _MCAF_FocStepIsrForwardPath

.text.MCAF_FocStepIsrFeedbackPath
                  0x003cb8        0x160
 .text.MCAF_FocStepIsrFeedbackPath
                  0x003cb8        0x160 build/default/production/mcc_generated_files/motorBench/foc.o
                  0x003cb8                  _MCAF_FocStepIsrFeedbackPath

.text.MCAF_CommutationStep
                  0x003e18        0x100
 .text.MCAF_CommutationStep
                  0x003e18        0x100 build/default/production/mcc_generated_files/motorBench/commutation.o
                  0x003e18                  _MCAF_CommutationStep

.text.MCAF_UiFlashErrorCodeForever
                  0x003f18         0xf2
 .text.MCAF_UiFlashErrorCodeForever
                  0x003f18         0xf2 build/default/production/mcc_generated_files/motorBench/ui.o
                  0x003f18                  _MCAF_UiFlashErrorCodeForever

.text.MCAF_SatDetect
                  0x00400a         0xee
 .text.MCAF_SatDetect
                  0x00400a         0xee build/default/production/mcc_generated_files/motorBench/sat_PI.o
                  0x00400a                  _MCAF_SatDetect

.text.MCAF_SystemStateMachine_Init
                  0x0040f8         0xea
 .text.MCAF_SystemStateMachine_Init
                  0x0040f8         0xea build/default/production/mcc_generated_files/motorBench/state_machine.o
                  0x0040f8                  _MCAF_SystemStateMachine_Init

.text             0x0041e2        0x184
 .text            0x0041e2         0xd6 mcc_generated_files\motorBench\library\x2cscope\libx2cscope-dspic-elf.a(generic-16dsp-epCommonFcts.o)
                  0x0041e2                  _Common_Init
                  0x0041e4                  _Common_Update
                  0x0041e6                  _Common_Load
                  0x0041e8                  _Common_Save
                  0x0041f4                  _Common_GetAddress
                  0x0041f6                  _getAbsValI8
                  0x004204                  _getAbsValI16
                  0x004214                  _getAbsValI32
                  0x00422e                  _getAbsValI64
                  0x004276                  _getAbsValR32
                  0x004290                  _getAbsValR64
 .text            0x0042b8         0xae mcc_generated_files\motorBench\library\x2cscope\libx2cscope-dspic-elf.a(generic-16bit-epX2CScopeWrapper.o)
                  0x0042b8                  _sendSerialWrapper
                  0x0042be                  _receiveSerialWrapper
                  0x0042c2                  _isReceiveDataAvailableWrapper
                  0x0042c6                  _isSendReadyWrapper
                  0x0042ca                  _X2Cscope_Initialise
                  0x004342                  _X2Cscope_Communicate
                  0x004348                  _X2Cscope_Update
                  0x00434a                  _X2Cscope_HookUARTFunctions
                  0x004354                  _initSerial

.text.MCAF_SystemInit
                  0x004366         0xa8
 .text.MCAF_SystemInit
                  0x004366         0xa8 build/default/production/mcc_generated_files/motorBench/system_init.o
                  0x004366                  _MCAF_SystemInit

.text.PIN_MANAGER_Initialize
                  0x00440e         0xa6
 .text.PIN_MANAGER_Initialize
                  0x00440e         0xa6 build/default/production/mcc_generated_files/pin_manager.o
                  0x00440e                  _PIN_MANAGER_Initialize

.text.MCAF_FocInit
                  0x0044b4         0xa2
 .text.MCAF_FocInit
                  0x0044b4         0xa2 build/default/production/mcc_generated_files/motorBench/foc.o
                  0x0044b4                  _MCAF_FocInit

.text.PWM_Initialize
                  0x004556         0x96
 .text.PWM_Initialize
                  0x004556         0x96 build/default/production/mcc_generated_files/pwm.o
                  0x004556                  _PWM_Initialize

.text.APP_ApplicationStep
                  0x0045ec         0x94
 .text.APP_ApplicationStep
                  0x0045ec         0x94 build/default/production/mcc_generated_files/motorBench/mcaf_sample_application.o
                  0x0045ec                  _APP_ApplicationStep

.text             0x004680         0x94
 .text            0x004680         0x94 build/default/production/mcc_generated_files/motorBench/math_asm.o
                  0x004680                  Q15SQRT
                  0x004680                  _Q15SQRT

.text.MCAF_MainInit
                  0x004714         0x88
 .text.MCAF_MainInit
                  0x004714         0x88 build/default/production/mcc_generated_files/motorBench/mcaf_main.o
                  0x004714                  _MCAF_MainInit

.text.MCAF_UiCalculateIndicatorState
                  0x00479c         0x84
 .text.MCAF_UiCalculateIndicatorState
                  0x00479c         0x84 build/default/production/mcc_generated_files/motorBench/ui.o
                  0x00479c                  _MCAF_UiCalculateIndicatorState

.text.MCAF_SystemStateMachine_StepMain
                  0x004820         0x84
 .text.MCAF_SystemStateMachine_StepMain
                  0x004820         0x84 build/default/production/mcc_generated_files/motorBench/state_machine.o
                  0x004820                  _MCAF_SystemStateMachine_StepMain

.text.MCAF_ControllerPIUpdate
                  0x0048a4         0x82
 .text.MCAF_ControllerPIUpdate
                  0x0048a4         0x82 build/default/production/mcc_generated_files/motorBench/sat_PI.o
                  0x0048a4                  _MCAF_ControllerPIUpdate

.text.MCAF_ButtonService
                  0x004926         0x64
 .text.MCAF_ButtonService
                  0x004926         0x64 build/default/production/mcc_generated_files/motorBench/board_service.o

.text.MCAF_Recovery
                  0x00498a         0x62
 .text.MCAF_Recovery
                  0x00498a         0x62 build/default/production/mcc_generated_files/motorBench/recover.o
                  0x00498a                  _MCAF_Recovery

.text.MCAF_InitControlParameters_Motor1
                  0x0049ec         0x5a
 .text.MCAF_InitControlParameters_Motor1
                  0x0049ec         0x5a build/default/production/mcc_generated_files/motorBench/parameters/init_params.o
                  0x0049ec                  _MCAF_InitControlParameters_Motor1

.text.MCAF_ADCRead
                  0x004a46         0x50
 .text.MCAF_ADCRead
                  0x004a46         0x50 build/default/production/mcc_generated_files/motorBench/adc_compensation.o
                  0x004a46                  _MCAF_ADCRead

.text.MCAF_EstimatorPllInit
                  0x004a96         0x48
 .text.MCAF_EstimatorPllInit
                  0x004a96         0x48 build/default/production/mcc_generated_files/motorBench/commutation/pll.o
                  0x004a96                  _MCAF_EstimatorPllInit

.text.TRAPS_halt_on_error
                  0x004ade         0x48
 .text.TRAPS_halt_on_error
                  0x004ade         0x48 build/default/production/mcc_generated_files/motorBench/mcaf_traps.o
                  0x004ade                  _TRAPS_halt_on_error

.text.MCAF_CommutationStartupInit
                  0x004b26         0x44
 .text.MCAF_CommutationStartupInit
                  0x004b26         0x44 build/default/production/mcc_generated_files/motorBench/commutation.o
                  0x004b26                  _MCAF_CommutationStartupInit

.text.MCAF_StartupTransitioningInit
                  0x004b6a         0x40
 .text.MCAF_StartupTransitioningInit
                  0x004b6a         0x40 build/default/production/mcc_generated_files/motorBench/startup.o
                  0x004b6a                  _MCAF_StartupTransitioningInit

.text.MCAF_PIN_MANAGER_Initialize
                  0x004baa         0x40
 .text.MCAF_PIN_MANAGER_Initialize
                  0x004baa         0x40 build/default/production/mcc_generated_files/motorBench/hal/mcaf_pin_manager.o
                  0x004baa                  _MCAF_PIN_MANAGER_Initialize

.text.CLOCK_Initialize
                  0x004bea         0x3e
 .text.CLOCK_Initialize
                  0x004bea         0x3e build/default/production/mcc_generated_files/clock.o
                  0x004bea                  _CLOCK_Initialize

.text             0x004c28         0x3e
 .text            0x004c28         0x3e mcc_generated_files\motorBench\library\x2cscope\libx2cscope-dspic-elf.a(generic-16dsp-epTableStruct.o)
                  0x004c28                  _initTableStruct
                  0x004c4c                  _addTableStructProtocol

.text.MCAF_MonitorSysDiagnose
                  0x004c66         0x3c
 .text.MCAF_MonitorSysDiagnose
                  0x004c66         0x3c build/default/production/mcc_generated_files/motorBench/monitor.o
                  0x004c66                  _MCAF_MonitorSysDiagnose

.text.MCAF_CheckResetCause
                  0x004ca2         0x3a
 .text.MCAF_CheckResetCause
                  0x004ca2         0x3a build/default/production/mcc_generated_files/motorBench/mcaf_traps.o
                  0x004ca2                  _MCAF_CheckResetCause

.text.MCAF_FocStepIsrNonCriticalTask
                  0x004cdc         0x36
 .text.MCAF_FocStepIsrNonCriticalTask
                  0x004cdc         0x36 build/default/production/mcc_generated_files/motorBench/foc.o
                  0x004cdc                  _MCAF_FocStepIsrNonCriticalTask

.text.MCAF_StallDetectInit
                  0x004d12         0x32
 .text.MCAF_StallDetectInit
                  0x004d12         0x32 build/default/production/mcc_generated_files/motorBench/stall_detect.o
                  0x004d12                  _MCAF_StallDetectInit

.text.MCAF_MainLoop
                  0x004d44         0x32
 .text.MCAF_MainLoop
                  0x004d44         0x32 build/default/production/mcc_generated_files/motorBench/mcaf_main.o
                  0x004d44                  _MCAF_MainLoop

.text.MCAF_FaultDetect
                  0x004d76         0x30
 .text.MCAF_FaultDetect
                  0x004d76         0x30 build/default/production/mcc_generated_files/motorBench/fault_detect.o
                  0x004d76                  _MCAF_FaultDetect

.text.MCAF_VarianceDetectx16Reset
                  0x004da6         0x2e
 .text.MCAF_VarianceDetectx16Reset
                  0x004da6         0x2e build/default/production/mcc_generated_files/motorBench/stall_detect.o
                  0x004da6                  _MCAF_VarianceDetectx16Reset

.text.MCAF_ADCCompensationInit
                  0x004dd4         0x2e
 .text.MCAF_ADCCompensationInit
                  0x004dd4         0x2e build/default/production/mcc_generated_files/motorBench/current_measure.o
                  0x004dd4                  _MCAF_ADCCompensationInit

.text.X2Cscope_Init
                  0x004e02         0x2c
 .text.X2Cscope_Init
                  0x004e02         0x2c build/default/production/mcc_generated_files/motorBench/diagnostics.o
                  0x004e02                  _X2Cscope_Init

.text.APP_ApplicationInitialize
                  0x004e2e         0x2a
 .text.APP_ApplicationInitialize
                  0x004e2e         0x2a build/default/production/mcc_generated_files/motorBench/mcaf_sample_application.o
                  0x004e2e                  _APP_ApplicationInitialize

.text.HAL_ADC_StepIsrCallback
                  0x004e58         0x2a
 .text.HAL_ADC_StepIsrCallback
                  0x004e58         0x2a build/default/production/mcc_generated_files/motorBench/hal/hardware_access_functions.o
                  0x004e58                  _HAL_ADC_StepIsrCallback

.text             0x004e82         0x2a
 .text            0x004e82         0x2a mcc_generated_files\motorBench\library\x2cscope\libx2cscope-dspic-elf.a(generic-16dsp-epSerialGeneric.o)
                  0x004e82                  generic-16dsp-epSerialGeneric.o:_sendSerial
                  0x004e84                  generic-16dsp-epSerialGeneric.o:_receiveSerial
                  0x004e86                  generic-16dsp-epSerialGeneric.o:_flush
                  0x004e88                  generic-16dsp-epSerialGeneric.o:_isSendReady
                  0x004e8a                  generic-16dsp-epSerialGeneric.o:_getTxFifoFree
                  0x004e8c                  generic-16dsp-epSerialGeneric.o:_isReceiveDataAvailable
                  0x004e8e                  _initSerialGeneric
                  0x004ea8                  _linkSerial

.text.MCAF_StallDetectReset
                  0x004eac         0x28
 .text.MCAF_StallDetectReset
                  0x004eac         0x28 build/default/production/mcc_generated_files/motorBench/stall_detect.o
                  0x004eac                  _MCAF_StallDetectReset

.text.MCAF_UiStepMain
                  0x004ed4         0x28
 .text.MCAF_UiStepMain
                  0x004ed4         0x28 build/default/production/mcc_generated_files/motorBench/ui.o
                  0x004ed4                  _MCAF_UiStepMain

.text.MCAF_UiInit
                  0x004efc         0x26
 .text.MCAF_UiInit
                  0x004efc         0x26 build/default/production/mcc_generated_files/motorBench/ui.o
                  0x004efc                  _MCAF_UiInit

.text.MCAF_VoltSatInit
                  0x004f22         0x26
 .text.MCAF_VoltSatInit
                  0x004f22         0x26 build/default/production/mcc_generated_files/motorBench/sat_PI.o
                  0x004f22                  _MCAF_VoltSatInit

.text.MCAF_TestHarness_Restart
                  0x004f48         0x24
 .text.MCAF_TestHarness_Restart
                  0x004f48         0x24 build/default/production/mcc_generated_files/motorBench/test_harness.o
                  0x004f48                  _MCAF_TestHarness_Restart

.text.MCAF_TorqueAngleDetectInit
                  0x004f6c         0x24
 .text.MCAF_TorqueAngleDetectInit
                  0x004f6c         0x24 build/default/production/mcc_generated_files/motorBench/stall_detect.o
                  0x004f6c                  _MCAF_TorqueAngleDetectInit

.text.MCAF_MonitorIsFaultDetected
                  0x004f90         0x22
 .text.MCAF_MonitorIsFaultDetected
                  0x004f90         0x22 build/default/production/mcc_generated_files/motorBench/monitor.o
                  0x004f90                  _MCAF_MonitorIsFaultDetected

.text.MCAF_CommutationPrepareStallDetectInputs
                  0x004fb2         0x22
 .text.MCAF_CommutationPrepareStallDetectInputs
                  0x004fb2         0x22 build/default/production/mcc_generated_files/motorBench/commutation.o
                  0x004fb2                  _MCAF_CommutationPrepareStallDetectInputs

.text.SYSTEM_Initialize
                  0x004fd4         0x20
 .text.SYSTEM_Initialize
                  0x004fd4         0x20 build/default/production/mcc_generated_files/system.o
                  0x004fd4                  _SYSTEM_Initialize

.text.MCAF_BoardServiceTasks
                  0x004ff4         0x20
 .text.MCAF_BoardServiceTasks
                  0x004ff4         0x20 build/default/production/mcc_generated_files/motorBench/board_service.o
                  0x004ff4                  _MCAF_BoardServiceTasks

.text.TMR2_Initialize
                  0x005014         0x1e
 .text.TMR2_Initialize
                  0x005014         0x1e build/default/production/mcc_generated_files/tmr2.o
                  0x005014                  _TMR2_Initialize

.text.ADC1_Initialize
                  0x005032         0x1e
 .text.ADC1_Initialize
                  0x005032         0x1e build/default/production/mcc_generated_files/adc1.o
                  0x005032                  _ADC1_Initialize

.text.MCAF_VarianceDetectx16Init
                  0x005050         0x1e
 .text.MCAF_VarianceDetectx16Init
                  0x005050         0x1e build/default/production/mcc_generated_files/motorBench/stall_detect.o
                  0x005050                  _MCAF_VarianceDetectx16Init

.text.MCAF_BoardServiceInit
                  0x00506e         0x1c
 .text.MCAF_BoardServiceInit
                  0x00506e         0x1c build/default/production/mcc_generated_files/motorBench/board_service.o
                  0x00506e                  _MCAF_BoardServiceInit

.text.INTERRUPT_Initialize
                  0x00508a         0x1a
 .text.INTERRUPT_Initialize
                  0x00508a         0x1a build/default/production/mcc_generated_files/interrupt_manager.o
                  0x00508a                  _INTERRUPT_Initialize

.text.MCAF_OvercurrentDetectInit
                  0x0050a4         0x14
 .text.MCAF_OvercurrentDetectInit
                  0x0050a4         0x14 build/default/production/mcc_generated_files/motorBench/stall_detect.o
                  0x0050a4                  _MCAF_OvercurrentDetectInit

.text.MCAF_NegativeEdDetectInit
                  0x0050b8         0x14
 .text.MCAF_NegativeEdDetectInit
                  0x0050b8         0x14 build/default/production/mcc_generated_files/motorBench/stall_detect.o
                  0x0050b8                  _MCAF_NegativeEdDetectInit

.text.MCAF_LowSpeedDetectInit
                  0x0050cc         0x14
 .text.MCAF_LowSpeedDetectInit
                  0x0050cc         0x14 build/default/production/mcc_generated_files/motorBench/stall_detect.o
                  0x0050cc                  _MCAF_LowSpeedDetectInit

.text.MCAF_TorqueAngleDetectReset
                  0x0050e0         0x12
 .text.MCAF_TorqueAngleDetectReset
                  0x0050e0         0x12 build/default/production/mcc_generated_files/motorBench/stall_detect.o
                  0x0050e0                  _MCAF_TorqueAngleDetectReset

.text.MCAF_UiSetupFlashErrorCode
                  0x0050f2         0x12
 .text.MCAF_UiSetupFlashErrorCode
                  0x0050f2         0x12 build/default/production/mcc_generated_files/motorBench/ui.o
                  0x0050f2                  _MCAF_UiSetupFlashErrorCode

.text.MCAF_FaultDetectInit
                  0x005104         0x12
 .text.MCAF_FaultDetectInit
                  0x005104         0x12 build/default/production/mcc_generated_files/motorBench/fault_detect.o
                  0x005104                  _MCAF_FaultDetectInit

.text.MCAF_SystemStart
                  0x005116         0x12
 .text.MCAF_SystemStart
                  0x005116         0x12 build/default/production/mcc_generated_files/motorBench/system_init.o
                  0x005116                  _MCAF_SystemStart

.text.UART1_Initialize
                  0x005128         0x10
 .text.UART1_Initialize
                  0x005128         0x10 build/default/production/mcc_generated_files/uart1.o
                  0x005128                  _UART1_Initialize

.text.UART1_Read
                  0x005138         0x10
 .text.UART1_Read
                  0x005138         0x10 build/default/production/mcc_generated_files/uart1.o
                  0x005138                  _UART1_Read

.text.UART1_IsTxReady
                  0x005148         0x10
 .text.UART1_IsTxReady
                  0x005148         0x10 build/default/production/mcc_generated_files/uart1.o
                  0x005148                  _UART1_IsTxReady

.text.stack_overflow_helper
                  0x005158         0x10
 .text.stack_overflow_helper
                  0x005158         0x10 build/default/production/mcc_generated_files/motorBench/test_harness.o

.text.MCAF_OvercurrentDetectReset
                  0x005168         0x10
 .text.MCAF_OvercurrentDetectReset
                  0x005168         0x10 build/default/production/mcc_generated_files/motorBench/stall_detect.o
                  0x005168                  _MCAF_OvercurrentDetectReset

.text.MCAF_ButtonInit
                  0x005178         0x10
 .text.MCAF_ButtonInit
                  0x005178         0x10 build/default/production/mcc_generated_files/motorBench/board_service.o

.text.MCAF_SatInit
                  0x005188         0x10
 .text.MCAF_SatInit
                  0x005188         0x10 build/default/production/mcc_generated_files/motorBench/sat_PI.o
                  0x005188                  _MCAF_SatInit

.text.MCAF_RecoveryReset
                  0x005198         0x10
 .text.MCAF_RecoveryReset
                  0x005198         0x10 build/default/production/mcc_generated_files/motorBench/recover.o
                  0x005198                  _MCAF_RecoveryReset

.text             0x0051a8         0x10
 .text            0x0051a8         0x10 mcc_generated_files\motorBench\library\x2cscope\libx2cscope-dspic-elf.a(generic-16dsp-epVersionInfo.o)
                  0x0051a8                  _initVersionInfo

.text.MCAF_BootstrapChargeInit
                  0x0051b8          0xe
 .text.MCAF_BootstrapChargeInit
                  0x0051b8          0xe build/default/production/mcc_generated_files/motorBench/gate_drive.o
                  0x0051b8                  _MCAF_BootstrapChargeInit

.text.MCAF_CurrentSatInit
                  0x0051c6          0xe
 .text.MCAF_CurrentSatInit
                  0x0051c6          0xe build/default/production/mcc_generated_files/motorBench/sat_PI.o
                  0x0051c6                  _MCAF_CurrentSatInit

.text.MCAF_RecoveryInit
                  0x0051d4          0xe
 .text.MCAF_RecoveryInit
                  0x0051d4          0xe build/default/production/mcc_generated_files/motorBench/recover.o
                  0x0051d4                  _MCAF_RecoveryInit

.text.TMR1_Initialize
                  0x0051e2          0xc
 .text.TMR1_Initialize
                  0x0051e2          0xc build/default/production/mcc_generated_files/tmr1.o
                  0x0051e2                  _TMR1_Initialize

.text.MCAF_NegativeEdDetectReset
                  0x0051ee          0xc
 .text.MCAF_NegativeEdDetectReset
                  0x0051ee          0xc build/default/production/mcc_generated_files/motorBench/stall_detect.o
                  0x0051ee                  _MCAF_NegativeEdDetectReset

.text.MCAF_LowSpeedDetectReset
                  0x0051fa          0xc
 .text.MCAF_LowSpeedDetectReset
                  0x0051fa          0xc build/default/production/mcc_generated_files/motorBench/stall_detect.o
                  0x0051fa                  _MCAF_LowSpeedDetectReset

.text.MCAF_ADCReadNonCritical
                  0x005206          0xc
 .text.MCAF_ADCReadNonCritical
                  0x005206          0xc build/default/production/mcc_generated_files/motorBench/adc_compensation.o
                  0x005206                  _MCAF_ADCReadNonCritical

.text             0x005212          0xc
 .text            0x005212          0xc mcc_generated_files\motorBench\library\x2cscope\libx2cscope-dspic-elf.a(generic-16dsp-epX2C.o)
                  0x005212                  _X2C_Init
                  0x00521a                  _X2C_Update

.text.UART1_Write
                  0x00521e          0xa
 .text.UART1_Write
                  0x00521e          0xa build/default/production/mcc_generated_files/uart1.o
                  0x00521e                  _UART1_Write

.text.TMR2_Start
                  0x005228          0xa
 .text.TMR2_Start
                  0x005228          0xa build/default/production/mcc_generated_files/tmr2.o
                  0x005228                  _TMR2_Start

.text.MCAF_FaultHandleInit
                  0x005232          0xa
 .text.MCAF_FaultHandleInit
                  0x005232          0xa build/default/production/mcc_generated_files/motorBench/fault_handle.o
                  0x005232                  _MCAF_FaultHandleInit

.text.TMR2_CallBack
                  0x00523c          0xa
 .text.TMR2_CallBack
                  0x00523c          0xa build/default/production/mcc_generated_files/motorBench/mcaf_sample_application.o
                  0x00523c                  _TMR2_CallBack

.text.MCAF_DCLinkVoltageFaultDetectInit
                  0x005246          0xa
 .text.MCAF_DCLinkVoltageFaultDetectInit
                  0x005246          0xa build/default/production/mcc_generated_files/motorBench/fault_detect.o
                  0x005246                  _MCAF_DCLinkVoltageFaultDetectInit

.text.MCAF_CommutationInit
                  0x005250          0xa
 .text.MCAF_CommutationInit
                  0x005250          0xa build/default/production/mcc_generated_files/motorBench/commutation.o
                  0x005250                  _MCAF_CommutationInit

.text.TMR1_Start
                  0x00525a          0x8
 .text.TMR1_Start
                  0x00525a          0x8 build/default/production/mcc_generated_files/tmr1.o
                  0x00525a                  _TMR1_Start

.text.TMR2_SetInterruptHandler
                  0x005262          0x8
 .text.TMR2_SetInterruptHandler
                  0x005262          0x8 build/default/production/mcc_generated_files/tmr2.o
                  0x005262                  _TMR2_SetInterruptHandler

.text.main        0x00526a          0x8
 .text.main       0x00526a          0x8 build/default/production/main.o
                  0x00526a                  _main

.text.MCAF_SystemTestHarness_Init
                  0x005272          0x8
 .text.MCAF_SystemTestHarness_Init
                  0x005272          0x8 build/default/production/mcc_generated_files/motorBench/test_harness.o
                  0x005272                  _MCAF_SystemTestHarness_Init

.text.MCAF_UiStepIsr
                  0x00527a          0x8
 .text.MCAF_UiStepIsr
                  0x00527a          0x8 build/default/production/mcc_generated_files/motorBench/ui.o
                  0x00527a                  _MCAF_UiStepIsr

.text.MCAF_MonitorRecoveryAcknowledged
                  0x005282          0x8
 .text.MCAF_MonitorRecoveryAcknowledged
                  0x005282          0x8 build/default/production/mcc_generated_files/motorBench/monitor.o
                  0x005282                  _MCAF_MonitorRecoveryAcknowledged

.text.UART1_IsRxReady
                  0x00528a          0x6
 .text.UART1_IsRxReady
                  0x00528a          0x6 build/default/production/mcc_generated_files/uart1.o
                  0x00528a                  _UART1_IsRxReady

.text.MCAF_FaultLatch_PowerupInit
                  0x005290          0x6
 .text.MCAF_FaultLatch_PowerupInit
                  0x005290          0x6 build/default/production/mcc_generated_files/motorBench/fault_handle.o
                  0x005290                  _MCAF_FaultLatch_PowerupInit

.text.MCAF_MonitorInit
                  0x005296          0x6
 .text.MCAF_MonitorInit
                  0x005296          0x6 build/default/production/mcc_generated_files/motorBench/monitor.o
                  0x005296                  _MCAF_MonitorInit

.text.MCAF_ButtonGp1_EventClear
                  0x00529c          0x6
 .text.MCAF_ButtonGp1_EventClear
                  0x00529c          0x6 build/default/production/mcc_generated_files/motorBench/board_service.o
                  0x00529c                  _MCAF_ButtonGp1_EventClear

.text.MCAF_ButtonGp2_EventClear
                  0x0052a2          0x6
 .text.MCAF_ButtonGp2_EventClear
                  0x0052a2          0x6 build/default/production/mcc_generated_files/motorBench/board_service.o
                  0x0052a2                  _MCAF_ButtonGp2_EventClear

.text.MCAF_FaultDetectReset
                  0x0052a8          0x6
 .text.MCAF_FaultDetectReset
                  0x0052a8          0x6 build/default/production/mcc_generated_files/motorBench/fault_detect.o
                  0x0052a8                  _MCAF_FaultDetectReset

.text.MCAF_DiagnosticsInit
                  0x0052ae          0x6
 .text.MCAF_DiagnosticsInit
                  0x0052ae          0x6 build/default/production/mcc_generated_files/motorBench/diagnostics.o
                  0x0052ae                  _MCAF_DiagnosticsInit

.text.HAL_Initialize
                  0x0052b4          0x6
 .text.HAL_Initialize
                  0x0052b4          0x6 build/default/production/mcc_generated_files/motorBench/hal/hardware_access_functions.o
                  0x0052b4                  _HAL_Initialize

.text.HAL_DMA_ErrorHandler
                  0x0052ba          0x6
 .text.HAL_DMA_ErrorHandler
                  0x0052ba          0x6 build/default/production/mcc_generated_files/motorBench/hal/hardware_access_functions.o
                  0x0052ba                  _HAL_DMA_ErrorHandler

.text.TMR1_Counter16BitGet
                  0x0052c0          0x4
 .text.TMR1_Counter16BitGet
                  0x0052c0          0x4 build/default/production/mcc_generated_files/tmr1.o
                  0x0052c0                  _TMR1_Counter16BitGet

.text.ADC1_SetInterruptHandler
                  0x0052c4          0x4
 .text.ADC1_SetInterruptHandler
                  0x0052c4          0x4 build/default/production/mcc_generated_files/adc1.o
                  0x0052c4                  _ADC1_SetInterruptHandler

.text.PWM_SetSpecialEventInterruptHandler
                  0x0052c8          0x4
 .text.PWM_SetSpecialEventInterruptHandler
                  0x0052c8          0x4 build/default/production/mcc_generated_files/pwm.o
                  0x0052c8                  _PWM_SetSpecialEventInterruptHandler

.text.MCAF_TestHarness_TriggerStackOverflow
                  0x0052cc          0x4
 .text.MCAF_TestHarness_TriggerStackOverflow
                  0x0052cc          0x4 build/default/production/mcc_generated_files/motorBench/test_harness.o
                  0x0052cc                  _MCAF_TestHarness_TriggerStackOverflow

.text.MCAF_SystemStateInit
                  0x0052d0          0x4
 .text.MCAF_SystemStateInit
                  0x0052d0          0x4 build/default/production/mcc_generated_files/motorBench/system_state.o
                  0x0052d0                  _MCAF_SystemStateInit

.text.MCAF_ButtonGp1_EventGet
                  0x0052d4          0x4
 .text.MCAF_ButtonGp1_EventGet
                  0x0052d4          0x4 build/default/production/mcc_generated_files/motorBench/board_service.o
                  0x0052d4                  _MCAF_ButtonGp1_EventGet

.text.MCAF_ButtonGp2_EventGet
                  0x0052d8          0x4
 .text.MCAF_ButtonGp2_EventGet
                  0x0052d8          0x4 build/default/production/mcc_generated_files/motorBench/board_service.o
                  0x0052d8                  _MCAF_ButtonGp2_EventGet

.text.halt_on_error
                  0x0052dc          0x4
 .text.halt_on_error
                  0x0052dc          0x4 build/default/production/mcc_generated_files/motorBench/mcaf_traps.o
                  0x0052dc                  _halt_on_error

.text.X2Cscope_isSendReady
                  0x0052e0          0x4
 .text.X2Cscope_isSendReady
                  0x0052e0          0x4 build/default/production/mcc_generated_files/motorBench/diagnostics.o
                  0x0052e0                  build/default/production/mcc_generated_files/motorBench/diagnostics.o:_X2Cscope_isSendReady

.text.X2Cscope_isReceiveDataAvailable
                  0x0052e4          0x4
 .text.X2Cscope_isReceiveDataAvailable
                  0x0052e4          0x4 build/default/production/mcc_generated_files/motorBench/diagnostics.o
                  0x0052e4                  build/default/production/mcc_generated_files/motorBench/diagnostics.o:_X2Cscope_isReceiveDataAvailable

.text.X2Cscope_receiveSerial
                  0x0052e8          0x4
 .text.X2Cscope_receiveSerial
                  0x0052e8          0x4 build/default/production/mcc_generated_files/motorBench/diagnostics.o
                  0x0052e8                  build/default/production/mcc_generated_files/motorBench/diagnostics.o:_X2Cscope_receiveSerial

.text.X2Cscope_sendSerial
                  0x0052ec          0x4
 .text.X2Cscope_sendSerial
                  0x0052ec          0x4 build/default/production/mcc_generated_files/motorBench/diagnostics.o
                  0x0052ec                  build/default/production/mcc_generated_files/motorBench/diagnostics.o:_X2Cscope_sendSerial

.text.MCAF_DiagnosticsStepMain
                  0x0052f0          0x4
 .text.MCAF_DiagnosticsStepMain
                  0x0052f0          0x4 build/default/production/mcc_generated_files/motorBench/diagnostics.o
                  0x0052f0                  _MCAF_DiagnosticsStepMain

.text.MCAF_DiagnosticsStepIsr
                  0x0052f4          0x4
 .text.MCAF_DiagnosticsStepIsr
                  0x0052f4          0x4 build/default/production/mcc_generated_files/motorBench/diagnostics.o
                  0x0052f4                  _MCAF_DiagnosticsStepIsr

.text.ADC1_CallBack
                  0x0052f8          0x2
 .text.ADC1_CallBack
                  0x0052f8          0x2 build/default/production/mcc_generated_files/adc1.o
                  0x0052f8                  _ADC1_CallBack

.text.PWM_SpecialEvent_CallBack
                  0x0052fa          0x2
 .text.PWM_SpecialEvent_CallBack
                  0x0052fa          0x2 build/default/production/mcc_generated_files/pwm.o
                  0x0052fa                  _PWM_SpecialEvent_CallBack

.text.MCAF_EstimatorPllStartupInit
                  0x0052fc          0x2
 .text.MCAF_EstimatorPllStartupInit
                  0x0052fc          0x2 build/default/production/mcc_generated_files/motorBench/commutation/pll.o
                  0x0052fc                  _MCAF_EstimatorPllStartupInit
